

Warning: no stack segment

 Start  Stop   Length Name                   Class
 00000H 03398H 03399H DOS                    CODE

  Address         Publics by Name

 0000:18FB       ADD_DATE
 0000:0082       APR
 0000:0096       AUG
 0000:0418       AUX_READ
 0000:0419       AUX_WRITE
 0000:2D28       BPB_OFF
 0000:000A       BPB_TABLE
 0000:001E       BPB_TOTAL
 0000:0000       BUF_HEAD
 0000:31B4       CACHE_INT21
 0000:2D44       CBCACHEACTIVE
 0000:2D3E       CBCACHEDATA
 0000:2D2E       CFG_DATA
 0000:2D30       CFG_SIZE
 0000:07E0       CHK_DEVNAME
 0000:0A42       CHK_FILENAME
 0000:0002       CLK_PTR
 0000:045D       CON_ADD
 0000:0493       CON_BACK
 0000:049F       CON_BEG
 0000:04AE       CON_CLEAR
 0000:0593       CON_CWORD
 0000:04C8       CON_DEL
 0000:04D6       CON_END
 0000:04E3       CON_ERASE
 0000:0497       CON_FWD
 0000:051F       CON_GETCLEN
 0000:051B       CON_GETDLEN
 0000:052B       CON_GETELEN
 0000:0521       CON_GETLEN
 0000:04F8       CON_GETTYPE
 0000:05BF       CON_IOCTL
 0000:0547       CON_LEFT
 0000:059F       CON_LWORD
 0000:05D4       CON_MODIFY
 0000:0559       CON_NEXT
 0000:056B       CON_OUT
 0000:057A       CON_RECALL
 0000:0584       CON_RIGHT
 0000:05AE       CON_RWORD
 0000:0DA7       COPY_NAME
 0000:0114       DAYS
 0000:192E       DAY_OF_WEEK
 0000:00B8       DEC
 0000:0020       DEF_SWITCHAR
 0000:0837       DEV_REQUEST
 0000:0363       DISK_READ
 0000:0364       DISK_WRITE
 0000:2947       DIV_32_16
 0000:0296       DOS_ABORT
 0000:024B       DOS_BRKPT
 0000:0366       DOS_CALL5
 0000:02B2       DOS_CHECK
 0000:0357       DOS_CTRLC
 0000:0362       DOS_DEFAULT
 0000:0226       DOS_DVERR
 0000:02A8       DOS_ENTER
 0000:035F       DOS_ERROR
 0000:0351       DOS_EXIT
 0000:02A0       DOS_FUNC
 0000:02FF       DOS_LEAVE
 0000:0344       DOS_LEAVE2
 0000:024C       DOS_OFERR
 0000:0270       DOS_OPCHK
 0000:0292       DOS_RESTART
 0000:2D2A       DOS_SEG
 0000:024A       DOS_SSTEP
 0000:028D       DOS_TERM
 0000:0365       DOS_TSR
 0000:0379       DOS_UTIL
 0000:08CA       DRV_FLUSH
 0000:098B       DSK_FFILL
 0000:0975       DSK_FFIRST
 0000:08C8       DSK_FLUSH
 0000:09FE       DSK_FNEXT
 0000:0913       DSK_GETDRV
 0000:091E       DSK_GETDTA
 0000:092F       DSK_GETINFO
 0000:08F2       DSK_SETDRV
 0000:0905       DSK_SETDTA
 0000:3252       FATAL_ERROR
 0000:0CED       FCB_CLOSE
 0000:0CA4       FCB_OPEN
 0000:0D64       FCB_PARSE
 0000:0D40       FCB_RBREAD
 0000:0CFF       FCB_RREAD
 0000:0D11       FCB_SETREL
 0000:0CF9       FCB_SREAD
 0000:0073       FEB
 0000:0021       FILENAME_CHARS
 0000:0034  Abs  FILENAME_CHARS_LEN
 0000:0055       FILENAME_SEPS
 0000:0010  Abs  FILENAME_SEPS_LEN
 0000:3139       FIND_CFG
 0000:0A98       FIND_CLN
 0000:0103       FRI
 0000:012E       FUNCTBL
 0000:0056  Abs  FUNCTBL_SIZE
 0000:03BA       FUNC_NONE
 0000:0ACD       GET_BPB
 0000:0B18       GET_CLN
 0000:0B74       GET_DIRENT
 0000:0D88       GET_FCB
 0000:2355       GET_FREE_SCB
 0000:2063       GET_PSP
 0000:2337       GET_SCB
 0000:18DD       GET_VECOFF
 0000:0FD4       HDL_CLOSE
 0000:1038       HDL_IOCTL
 0000:0FB8       HDL_OPEN
 0000:0FE0       HDL_READ
 0000:1016       HDL_SEEK
 0000:0FFA       HDL_WRITE
 0000:27DD       HPRINTF
 0000:0D9A       INC_FCB
 0000:236C       INIT_SCB
 0000:3179       INIT_TABLE
 0000:0380       INT_ENTER
 0000:0387       INT_LEAVE
 0000:001D       INT_LEVEL
 0000:325B       INT_TABLES
 0000:3299       INT_TABLES_END
 0000:23CA       ITOA
 0000:006B       JAN
 0000:0091       JUL
 0000:008C       JUN
 0000:0018       KEY_BOOT
 0000:1BD7       LOAD_ARGS
 0000:1B7A       LOAD_COMMAND
 0000:1C2B       LOAD_PROGRAM
 0000:007C       MAR
 0000:0088       MAY
 0000:152E       MCB_ALLOC
 0000:15E3       MCB_FREE
 0000:1667       MCB_FREE_ALL
 0000:169A       MCB_GETSIZE
 0000:0006       MCB_HEAD
 0000:14E2       MCB_INIT
 0000:0008       MCB_LIMIT
 0000:159F       MCB_REALLOC
 0000:14F0       MCB_SETNAME
 0000:1507       MCB_SPLIT
 0000:1452       MEM_ALLOC
 0000:1461       MEM_FREE
 0000:147F       MEM_QUERY
 0000:146D       MEM_REALLOC
 0000:00E1       MON
 0000:00C2       MONTHS
 0000:0122       MONTH_DAYS
 0000:16E2       MSC_GETDATE
 0000:18AB       MSC_GETSWC
 0000:1759       MSC_GETTIME
 0000:18D4       MSC_GETVARS
 0000:1895       MSC_GETVEC
 0000:17BA       MSC_GETVER
 0000:180E       MSC_READCTRLC
 0000:17CB       MSC_SETCTRLC
 0000:1714       MSC_SETDATE
 0000:1791       MSC_SETTIME
 0000:16CC       MSC_SETVEC
 0000:17FB       MSC_SIGCTRLC
 0000:1873       MSC_SIGERR
 0000:2955       MUL_32_16
 0000:00AF       NOV
 0000:00A7       OCT
 0000:3007       OPEN_ERROR
 0000:0DCA       PARSE_NAME
 0000:2D40       PCACHEACTIVE
 0000:2D3A       PCACHEDATA
 0000:2D36       PCACHEFILE
 0000:2D32       PCACHEINT21
 0000:1389       PFH_ALLOC
 0000:13D3       PFH_CLOSE
 0000:13B6       PFH_SET
 0000:324C       PRINT_ERROR
 0000:041A       PRN_WRITE
 0000:1FA4       PSP_CALCSUM
 0000:1FF4       PSP_CLOSE
 0000:1A38       PSP_COPY
 0000:1B24       PSP_CREATE
 0000:1A5F       PSP_EXEC
 0000:1B1D       PSP_GET
 0000:2002       PSP_INIT
 0000:1B0B       PSP_RETCODE
 0000:1B06       PSP_RETURN
 0000:1B17       PSP_SET
 0000:2018       PSP_SETMEM
 0000:198E       PSP_TERM
 0000:1990       PSP_TERMCODE
 0000:0C56       READ_BUFFER
 0000:0683       READ_CHAR
 0000:0E8B       READ_FCB
 0000:06B7       READ_LINE
 0000:010A       SAT
 0000:2324       SCB_ABORT
 0000:0016       SCB_ACTIVE
 0000:21A6       SCB_CLOSE
 0000:21DB       SCB_END
 0000:22F2       SCB_ENDWAIT
 0000:2098       SCB_GETNUM
 0000:20AD       SCB_LOAD
 0000:2104       SCB_LOCK
 0000:001C       SCB_LOCKED
 0000:2168       SCB_RELEASE
 0000:218E       SCB_RETURN
 0000:218F       SCB_START
 0000:2181       SCB_STOKE
 0000:001A       SCB_STOKED
 0000:21A2       SCB_STOP
 0000:227F       SCB_SWITCH
 0000:0012       SCB_TABLE
 0000:22BE       SCB_TEST
 0000:2145       SCB_UNLOCK
 0000:22C6       SCB_WAIT
 0000:21FE       SCB_WAITEND
 0000:2231       SCB_YIELD
 0000:0F66       SEEK_FCB
 0000:009D       SEP
 0000:0F84       SETCUR_FCB
 0000:207F       SET_PSP
 0000:12E1       SFB_CLOSE
 0000:1359       SFB_FIND_FCB
 0000:133C       SFB_FROM_SFH
 0000:131A       SFB_GET
 0000:1058       SFB_OPEN
 0000:105A       SFB_OPEN_FCB
 0000:1124       SFB_READ
 0000:1269       SFB_SEEK
 0000:000E       SFB_TABLE
 0000:12A0       SFB_WRITE
 0000:13F7       SFH_ADD_REF
 0000:140C       SFH_CLOSE
 0000:1431       SFH_CONTEXT
 0000:001F       SFH_DEBUG
 0000:2474       SPRINTF
 0000:275F       STRLEN
 0000:27C3       STRUPR
 0000:0065       STR_CTRLC
 0000:0003  Abs  STR_CTRLC_LEN
 0000:0068       STR_ESC
 0000:0003  Abs  STR_ESC_LEN
 0000:00DA       SUN
 0000:2D46       SYSINIT
 0000:3399       SYSINIT_END
 0000:3249       SYSINIT_ERROR
 0000:2DA2       SYSINIT_HIGH
 0000:2D28       SYSINIT_START
 0000:00FA       THU
 0000:2A53       TOK_CLASSIFY
 0000:2D2C       TOP_SEG
 0000:0406       TTY_ECHO
 0000:0682       TTY_FLUSH
 0000:043B       TTY_IN
 0000:0456       TTY_INPUT
 0000:041B       TTY_IO
 0000:0448       TTY_PRINT
 0000:043F       TTY_READ
 0000:0681       TTY_STATUS
 0000:0412       TTY_WRITE
 0000:00E8       TUE
 0000:01DA       UTILTBL
 0000:0026  Abs  UTILTBL_SIZE
 0000:2866       UTL_ATOI
 0000:2863       UTL_ATOI16
 0000:2936       UTL_ATOI32
 0000:293C       UTL_ATOI32D
 0000:2869       UTL_ATOI_BASE
 0000:2816       UTL_DPRINTF
 0000:2D14       UTL_EDITLN
 0000:2C5D       UTL_END
 0000:2C8B       UTL_ENDWAIT
 0000:2C31       UTL_GETCSN
 0000:2CEF       UTL_GETDATE
 0000:2C1A       UTL_GETDEV
 0000:2CF8       UTL_GETTIME
 0000:2C93       UTL_HOTKEY
 0000:2D01       UTL_INCDATE
 0000:2857       UTL_ITOA
 0000:2C42       UTL_LOAD
 0000:2CCF       UTL_LOCK
 0000:2B88       UTL_PARSESW
 0000:27DB       UTL_PRINTF
 0000:2CE2       UTL_QRYMEM
 0000:2D22       UTL_RESTART
 0000:2C75       UTL_SLEEP
 0000:2843       UTL_SPRINTF
 0000:2C4B       UTL_START
 0000:2C54       UTL_STOP
 0000:2752       UTL_STRLEN
 0000:277C       UTL_STRSTR
 0000:27BF       UTL_STRUPR
 0000:2CEB       UTL_TERM
 0000:2B04       UTL_TOKID
 0000:2969       UTL_TOKIFY
 0000:2CDE       UTL_UNLOCK
 0000:2C83       UTL_WAIT
 0000:2C66       UTL_WAITEND
 0000:2C6E       UTL_YIELD
 0000:00F0       WED
 0000:07A4       WRITE_CHAR
 0000:07B7       WRITE_STRING

  Address         Publics by Value

 0000:0000       BUF_HEAD
 0000:0002       CLK_PTR
 0000:0003  Abs  STR_ESC_LEN
 0000:0003  Abs  STR_CTRLC_LEN
 0000:0006       MCB_HEAD
 0000:0008       MCB_LIMIT
 0000:000A       BPB_TABLE
 0000:000E       SFB_TABLE
 0000:0010  Abs  FILENAME_SEPS_LEN
 0000:0012       SCB_TABLE
 0000:0016       SCB_ACTIVE
 0000:0018       KEY_BOOT
 0000:001A       SCB_STOKED
 0000:001C       SCB_LOCKED
 0000:001D       INT_LEVEL
 0000:001E       BPB_TOTAL
 0000:001F       SFH_DEBUG
 0000:0020       DEF_SWITCHAR
 0000:0021       FILENAME_CHARS
 0000:0026  Abs  UTILTBL_SIZE
 0000:0034  Abs  FILENAME_CHARS_LEN
 0000:0055       FILENAME_SEPS
 0000:0056  Abs  FUNCTBL_SIZE
 0000:0065       STR_CTRLC
 0000:0068       STR_ESC
 0000:006B       JAN
 0000:0073       FEB
 0000:007C       MAR
 0000:0082       APR
 0000:0088       MAY
 0000:008C       JUN
 0000:0091       JUL
 0000:0096       AUG
 0000:009D       SEP
 0000:00A7       OCT
 0000:00AF       NOV
 0000:00B8       DEC
 0000:00C2       MONTHS
 0000:00DA       SUN
 0000:00E1       MON
 0000:00E8       TUE
 0000:00F0       WED
 0000:00FA       THU
 0000:0103       FRI
 0000:010A       SAT
 0000:0114       DAYS
 0000:0122       MONTH_DAYS
 0000:012E       FUNCTBL
 0000:01DA       UTILTBL
 0000:0226       DOS_DVERR
 0000:024A       DOS_SSTEP
 0000:024B       DOS_BRKPT
 0000:024C       DOS_OFERR
 0000:0270       DOS_OPCHK
 0000:028D       DOS_TERM
 0000:0292       DOS_RESTART
 0000:0296       DOS_ABORT
 0000:02A0       DOS_FUNC
 0000:02A8       DOS_ENTER
 0000:02B2       DOS_CHECK
 0000:02FF       DOS_LEAVE
 0000:0344       DOS_LEAVE2
 0000:0351       DOS_EXIT
 0000:0357       DOS_CTRLC
 0000:035F       DOS_ERROR
 0000:0362       DOS_DEFAULT
 0000:0363       DISK_READ
 0000:0364       DISK_WRITE
 0000:0365       DOS_TSR
 0000:0366       DOS_CALL5
 0000:0379       DOS_UTIL
 0000:0380       INT_ENTER
 0000:0387       INT_LEAVE
 0000:03BA       FUNC_NONE
 0000:0406       TTY_ECHO
 0000:0412       TTY_WRITE
 0000:0418       AUX_READ
 0000:0419       AUX_WRITE
 0000:041A       PRN_WRITE
 0000:041B       TTY_IO
 0000:043B       TTY_IN
 0000:043F       TTY_READ
 0000:0448       TTY_PRINT
 0000:0456       TTY_INPUT
 0000:045D       CON_ADD
 0000:0493       CON_BACK
 0000:0497       CON_FWD
 0000:049F       CON_BEG
 0000:04AE       CON_CLEAR
 0000:04C8       CON_DEL
 0000:04D6       CON_END
 0000:04E3       CON_ERASE
 0000:04F8       CON_GETTYPE
 0000:051B       CON_GETDLEN
 0000:051F       CON_GETCLEN
 0000:0521       CON_GETLEN
 0000:052B       CON_GETELEN
 0000:0547       CON_LEFT
 0000:0559       CON_NEXT
 0000:056B       CON_OUT
 0000:057A       CON_RECALL
 0000:0584       CON_RIGHT
 0000:0593       CON_CWORD
 0000:059F       CON_LWORD
 0000:05AE       CON_RWORD
 0000:05BF       CON_IOCTL
 0000:05D4       CON_MODIFY
 0000:0681       TTY_STATUS
 0000:0682       TTY_FLUSH
 0000:0683       READ_CHAR
 0000:06B7       READ_LINE
 0000:07A4       WRITE_CHAR
 0000:07B7       WRITE_STRING
 0000:07E0       CHK_DEVNAME
 0000:0837       DEV_REQUEST
 0000:08C8       DSK_FLUSH
 0000:08CA       DRV_FLUSH
 0000:08F2       DSK_SETDRV
 0000:0905       DSK_SETDTA
 0000:0913       DSK_GETDRV
 0000:091E       DSK_GETDTA
 0000:092F       DSK_GETINFO
 0000:0975       DSK_FFIRST
 0000:098B       DSK_FFILL
 0000:09FE       DSK_FNEXT
 0000:0A42       CHK_FILENAME
 0000:0A98       FIND_CLN
 0000:0ACD       GET_BPB
 0000:0B18       GET_CLN
 0000:0B74       GET_DIRENT
 0000:0C56       READ_BUFFER
 0000:0CA4       FCB_OPEN
 0000:0CED       FCB_CLOSE
 0000:0CF9       FCB_SREAD
 0000:0CFF       FCB_RREAD
 0000:0D11       FCB_SETREL
 0000:0D40       FCB_RBREAD
 0000:0D64       FCB_PARSE
 0000:0D88       GET_FCB
 0000:0D9A       INC_FCB
 0000:0DA7       COPY_NAME
 0000:0DCA       PARSE_NAME
 0000:0E8B       READ_FCB
 0000:0F66       SEEK_FCB
 0000:0F84       SETCUR_FCB
 0000:0FB8       HDL_OPEN
 0000:0FD4       HDL_CLOSE
 0000:0FE0       HDL_READ
 0000:0FFA       HDL_WRITE
 0000:1016       HDL_SEEK
 0000:1038       HDL_IOCTL
 0000:1058       SFB_OPEN
 0000:105A       SFB_OPEN_FCB
 0000:1124       SFB_READ
 0000:1269       SFB_SEEK
 0000:12A0       SFB_WRITE
 0000:12E1       SFB_CLOSE
 0000:131A       SFB_GET
 0000:133C       SFB_FROM_SFH
 0000:1359       SFB_FIND_FCB
 0000:1389       PFH_ALLOC
 0000:13B6       PFH_SET
 0000:13D3       PFH_CLOSE
 0000:13F7       SFH_ADD_REF
 0000:140C       SFH_CLOSE
 0000:1431       SFH_CONTEXT
 0000:1452       MEM_ALLOC
 0000:1461       MEM_FREE
 0000:146D       MEM_REALLOC
 0000:147F       MEM_QUERY
 0000:14E2       MCB_INIT
 0000:14F0       MCB_SETNAME
 0000:1507       MCB_SPLIT
 0000:152E       MCB_ALLOC
 0000:159F       MCB_REALLOC
 0000:15E3       MCB_FREE
 0000:1667       MCB_FREE_ALL
 0000:169A       MCB_GETSIZE
 0000:16CC       MSC_SETVEC
 0000:16E2       MSC_GETDATE
 0000:1714       MSC_SETDATE
 0000:1759       MSC_GETTIME
 0000:1791       MSC_SETTIME
 0000:17BA       MSC_GETVER
 0000:17CB       MSC_SETCTRLC
 0000:17FB       MSC_SIGCTRLC
 0000:180E       MSC_READCTRLC
 0000:1873       MSC_SIGERR
 0000:1895       MSC_GETVEC
 0000:18AB       MSC_GETSWC
 0000:18D4       MSC_GETVARS
 0000:18DD       GET_VECOFF
 0000:18FB       ADD_DATE
 0000:192E       DAY_OF_WEEK
 0000:198E       PSP_TERM
 0000:1990       PSP_TERMCODE
 0000:1A38       PSP_COPY
 0000:1A5F       PSP_EXEC
 0000:1B06       PSP_RETURN
 0000:1B0B       PSP_RETCODE
 0000:1B17       PSP_SET
 0000:1B1D       PSP_GET
 0000:1B24       PSP_CREATE
 0000:1B7A       LOAD_COMMAND
 0000:1BD7       LOAD_ARGS
 0000:1C2B       LOAD_PROGRAM
 0000:1FA4       PSP_CALCSUM
 0000:1FF4       PSP_CLOSE
 0000:2002       PSP_INIT
 0000:2018       PSP_SETMEM
 0000:2063       GET_PSP
 0000:207F       SET_PSP
 0000:2098       SCB_GETNUM
 0000:20AD       SCB_LOAD
 0000:2104       SCB_LOCK
 0000:2145       SCB_UNLOCK
 0000:2168       SCB_RELEASE
 0000:2181       SCB_STOKE
 0000:218E       SCB_RETURN
 0000:218F       SCB_START
 0000:21A2       SCB_STOP
 0000:21A6       SCB_CLOSE
 0000:21DB       SCB_END
 0000:21FE       SCB_WAITEND
 0000:2231       SCB_YIELD
 0000:227F       SCB_SWITCH
 0000:22BE       SCB_TEST
 0000:22C6       SCB_WAIT
 0000:22F2       SCB_ENDWAIT
 0000:2324       SCB_ABORT
 0000:2337       GET_SCB
 0000:2355       GET_FREE_SCB
 0000:236C       INIT_SCB
 0000:23CA       ITOA
 0000:2474       SPRINTF
 0000:2752       UTL_STRLEN
 0000:275F       STRLEN
 0000:277C       UTL_STRSTR
 0000:27BF       UTL_STRUPR
 0000:27C3       STRUPR
 0000:27DB       UTL_PRINTF
 0000:27DD       HPRINTF
 0000:2816       UTL_DPRINTF
 0000:2843       UTL_SPRINTF
 0000:2857       UTL_ITOA
 0000:2863       UTL_ATOI16
 0000:2866       UTL_ATOI
 0000:2869       UTL_ATOI_BASE
 0000:2936       UTL_ATOI32
 0000:293C       UTL_ATOI32D
 0000:2947       DIV_32_16
 0000:2955       MUL_32_16
 0000:2969       UTL_TOKIFY
 0000:2A53       TOK_CLASSIFY
 0000:2B04       UTL_TOKID
 0000:2B88       UTL_PARSESW
 0000:2C1A       UTL_GETDEV
 0000:2C31       UTL_GETCSN
 0000:2C42       UTL_LOAD
 0000:2C4B       UTL_START
 0000:2C54       UTL_STOP
 0000:2C5D       UTL_END
 0000:2C66       UTL_WAITEND
 0000:2C6E       UTL_YIELD
 0000:2C75       UTL_SLEEP
 0000:2C83       UTL_WAIT
 0000:2C8B       UTL_ENDWAIT
 0000:2C93       UTL_HOTKEY
 0000:2CCF       UTL_LOCK
 0000:2CDE       UTL_UNLOCK
 0000:2CE2       UTL_QRYMEM
 0000:2CEB       UTL_TERM
 0000:2CEF       UTL_GETDATE
 0000:2CF8       UTL_GETTIME
 0000:2D01       UTL_INCDATE
 0000:2D14       UTL_EDITLN
 0000:2D22       UTL_RESTART
 0000:2D28       SYSINIT_START
 0000:2D28       BPB_OFF
 0000:2D2A       DOS_SEG
 0000:2D2C       TOP_SEG
 0000:2D2E       CFG_DATA
 0000:2D30       CFG_SIZE
 0000:2D32       PCACHEINT21
 0000:2D36       PCACHEFILE
 0000:2D3A       PCACHEDATA
 0000:2D3E       CBCACHEDATA
 0000:2D40       PCACHEACTIVE
 0000:2D44       CBCACHEACTIVE
 0000:2D46       SYSINIT
 0000:2DA2       SYSINIT_HIGH
 0000:3007       OPEN_ERROR
 0000:3139       FIND_CFG
 0000:3179       INIT_TABLE
 0000:31B4       CACHE_INT21
 0000:3249       SYSINIT_ERROR
 0000:324C       PRINT_ERROR
 0000:3252       FATAL_ERROR
 0000:325B       INT_TABLES
 0000:3299       INT_TABLES_END
 0000:3399       SYSINIT_END
