Microsoft (R) Macro Assembler  Version 4.00                 7/13/20 11:13:55

IBMRES - IBM compatible reserved words / MLC                Page     1-1
                                                            

                                ; [ This translation created 10-Feb-83 by Versi
				on 4.3 ] 
                                 
 0008                           	.RADIX  8		; To be safe 
                                 
 0000                           CSEG	SEGMENT PUBLIC 'CODESG' 
                                	ASSUME  CS:CSEG 
                                 
                             C  INCLUDE	IBMRES.INC 
                             C  ; Include file for IBMRES.ASM 
                             C  ; 
                             C  INCLUDE OEM.INC                        ; Genera
				l definitions 
                             C  ; [ This translation created 10-Feb-83 by Versi
				on 4.3 ] 
                             C   
                             C  	SUBTTL  Common file to produce 2-segment 8086 
				GW-CPM BASIC 
                             C   
                             C  	.SALL 
                             C   
 000A                        C  	.RADIX	10 
 = 0000                      C  	OEMRAM=0D 
                             C  ;Pascal program HFILE searches for the followin
				g line - DO NOT MODIFY 
                             C  ;** (VERSION SPECIFIC VALUES) *****************
				******************************* 
 = 0019                      C  	NMLINE=25		;Max screen display text lines 
 = 0001                      C  	NBANKS=1		;Number of graphic planes 
 = 0000                      C  	PALSIZ=0		;Size of OEM color palette 
 = 0000                      C  	DBLCHR=0		;Editor support for KANJI chars 
 = 0000                      C  	KANABS=0		;Kana BASIC (Japanese JIS codes) 
 = 0000                      C  	KANJFN=0		;KANJI String Functions KPOS, KLEN .
				. 
 = 0000                      C  	JISKTN=0		;&K, &J constants (KANJI) 
 = 0001                      C  	SUPRSH=1		;1=super shift key feature 
 = 000A                      C  	NMKEYF=10		;number of function keys 
 = 000E                      C  	NMKEYT=14		;number of function key traps 
 = 0001                      C  	FKEYON=1		;yes=display function keys 
 = 0001                      C  	SCROLT=1		;Line 25 allocated for status only 
 = 0001                      C  	PLAYSW=1		;for PLAY statement 
 = 0001                      C  	BEEPSW=1		;for SOUND, BEEP statements 
 = 0003                      C  	NMLPT=3			;number of line printers 
 = 0001                      C  	CONSSW=1		;Device CONS: 
 = 0002                      C  	NMCOMT=2		;number of COMmunications ports 
 = 0001                      C  	NMPENT=1		;number of light pens 
 = 0004                      C  	NMSTRT=4		;number of joysticks 
 = 0000                      C  	GWCASS=0		;Cassette switch (CSAVE,CLOAD,MOTOR)
				 
 = 0001                      C  	IBMLIK=1		;IBM compatibility package 
 = 0001                      C  	IBMTOK=1		;IBM token compatibility 
 = 0001                      C  	DYNCOM=1		;Dynamic communication buffers 
                             C  ;** (END OF VERSION SPECIFIC VALUES) **********
				******************************* 
Microsoft (R) Macro Assembler  Version 4.00                 7/13/20 11:13:55

IBMRES - IBM compatible reserved words / MLC                Page     1-2
Common file to produce 2-segment 8086 GW-CPM BASIC          

                             C  ;Pascal program HFILE searches for the previous
				 line - DO NOT MODIFY 
                             C  ; 
 = 0015                      C  	NUMTRP=NMKEYT+NMCOMT+NMPENT+NMSTRT 
 = 0001                      C  	GW=1			;GW BASIC 
 = 0000                      C  	ESCCTL=0		;Escape Sequence processing in SCROU
				T 
 = 0000                      C  	GWDBUG=0		;DEBUG statement (TEST VERSIONS ONLY
				) 
                             C  				; Support is in BINTRP.MAC and GWSTS.MAC 
 = 0000                      C  	SIXDIG=0		;# of digits of accuracy assumed whe
				n formatting 
                             C  				;single precision numbers for output. 
                             C  				; 0 := 7 digits 
                             C  				; 1 := 6 digits 
 = 0000                      C  	CASSW=0			;CASSETTE SWITCH 
 = 0001                      C  	LABKEY=1		;^T (LABEL) key capability 
 = 0001                      C  	HGHBIT=1		;8-bit characters (ASCII & Graphics)
				 
 = 0001                      C  	QUEUE=1			;Queued painting algorithm (vs. stac
				k) 
 = 0001                      C  	GIO86=1			;BASIC-86 Generalized I/O 
 = 0001                      C  	SCRNIO=1		;Screen editor 
 = 0001                      C  	SCRN86=1		;8086 Screen editor 
 = 0001                      C  	I8086=1			;CROSS ASSEMBLING FOR 8086 
 = 0001                      C  	MULSEG=1		;MULTI-SEGMENT 8086 BASIC 
 = 0000                      C  	SMALL=0			;"SMALL" VERSION OF 8086 BASIC IF SE
				T 
 = 0001                      C  	TRUROM=1 
 = 0000                      C  	SBC86=0			;SBC 86/02 BOARD? 
 = 0001                      C  	SHORTJ=1		;USE INTRA-SEGMENT SHORT JUMPS 
                             C  				;IN 8086 CODE 
 = 0001                      C  	LNGVAR=1		;LONG VARIABLE NAME SUPPORT (EXTENDE
				D ONLY) 
 = 0000                      C  	SHTERR=0		;SHORT (2 CHAR) ERROR MESSAGES 
 = 0000                      C  	SHTINS=0		;INSTR IN NON-FAST LEN2 VERSIONS 
 = 0000                      C  	SHTLHM=0		;LEFT HAND SIDE MID IN NON FAST LEN2
				 VERSIONS 
 = 0000                      C  	SHTCHN=0		;ALLOW CHAIN IN NON-5.0 
 = 0000                      C  	SHTPRO=0		;ALLOW PROTECTED FILES IN NON-FIVDSK
				 
 = 0000                      C  	SHTLIN=0		;ALLOW LINE INPUT IN NON-EXTENDED NO
				N-FAST 
 = 0000                      C  	SHTREN=0		;ALLOW RENUM IN NON-FST VERSIONS 
 = 0001                      C  	INKEYF=1		;ADDS INKEY$ FUNCTION 
 = 0000                      C  	NOIOS=0			;NO I/O STATMENTS (INP,OUT, WAIT) 
 = 0000                      C  	NOPEKS=0		;NO PEEK, POKE 
 = 0000                      C  	NOUSR=0			;NO USR 
 = 0000                      C  	NOCTLA=0		;NO CONTROL-A IN EXTENDED 
 = 0000                      C  	NORUBT=0		;NO RUBOUT 
 = 0000                      C  	NOROMP=0		;NO ROM PROGRAM FEATURE 
 = 0000                      C  	NOATDL=0		;NO AUTO DELETE IN NON-FAST EXTENDED
				 
 = 0000                      C  	NODOT=0			;NO DOT IN LEN2 
Microsoft (R) Macro Assembler  Version 4.00                 7/13/20 11:13:55

IBMRES - IBM compatible reserved words / MLC                Page     1-3
Common file to produce 2-segment 8086 GW-CPM BASIC          

 = 0000                      C  	NOEDIT=0		;NO EDIT COMMAND 
 = 0000                      C  	CRONLY=0		;ONLY PUT OUT CR, NOT CRLF TO TERMIN
				AL 
                             C  				;AND FILES 
 = 0000                      C  	NONULL=0		;NO NULL COMMAND, PUT OUT NULLS IN C
				RDO & OUTCH1 
 = 0000                      C  	NOVARP=0		;NO VARPTR FUNCTION 
 = 0001                      C  	FIVEO=1			;GENERATE VERSION WITH RELEASE 5.0 F
				EATURES 
 = 0001                      C  	FIVMEM=1 
 = 0001                      C  	ANSI=1 
 = 0001                      C  	FIVDSK=1		;5.0 NEW DSK CODE 
 = 0001                      C  	FIVLPT=1		;WIDTH LPRINT AND 255 FEATURE 
 = 0001                      C  	HEXOCT=1		;&H..., HEX$, &O..., OCT$ 
 = 0000                      C  	BINCSW=0		;&B..., BIN$ 
 = 0001                      C  	BLODSW=1		;BLOAD, BSAVE COMMANDS 
 = 0001                      C  	MEMIMG=1		;MEMORY IMAGE FILES 
 = 0001                      C  	GENBIN=1 
                             C   
 = 0000                      C  	TRUANS=0		;TRUE ANSI VERSION (STATIC SCAN, ON 
				ERROR) 
 = 0000                      C  	COMMNT=0		;DONT WANT BIG COMMENT 
 = 0000                      C  	INTEL=0			;INTEL PROPRIETARY 
 = 0000                      C  	INTFSW=0		;INTEL FLOATING POINT 
 = 0000                      C  	INTFHW=0 
 = 0000                      C  	RMX=0			;INTEL RMX VERSION 
 = 0000                      C  	EDIT80=0		;FOR EDIT80 I/O ROUTINES 
 = 0000                      C  	RSHACK=0 
 = 0000                      C  	INTLEC=0 
 = 0002                      C  	LENGTH=2		;  1 MEANS 8K, 2 MEANS 12K 
 = 0000                      C  	BASDEB=0		;WHETHER DBG WILL BE LOADED WITH BAS
				IC 
 = 0001                      C  	RSTLES=1		;WHETHER BASIC WILL USE RST LOCATION
				S 
                             C  				;TO MAKE ITSELF SMALLER & QUICKER 
 = 0001                      C  	REALIO=1		;WHETHER SIMULATE (=0) OR ON MACHINE
				 (=1) 
 = 0001                      C  	GENIO=1			;USE G/P ROUTINES 
 = 0001                      C  	CHSEAT=1		;CHSNS eats chars 
 = 0000                      C  	GENDSK=0		;USE G/P DSK CODE 
 = 0000                      C  	LONGI=0			;WHETHER WE ASK "TERMINAL WIDTH?" 
                             C  				;AND WANT SIN-TAN-COS-ATN? 
 = 0000                      C  	INSTSW=0		;FOR INSTR INSTRUCTION 
 = 0001                      C  	SWAPSW=1		;FOR SWAP STATEMENT 
 = 0000                      C  	MDS=0			;FOR INTEL MDS SYSTEMS 
 = 0000                      C  	SBC=0			;FOR INTEL SINGLE BOARD COMPUTER 
                             C  				;1=SBC 80/10, 2=SBC 80/20 
 = 0001                      C  	PURE=1			;ON FOR PURE CODE 
 = 0000                      C  	KILLER=0		;FOR ROM VERSION THAT WONT RUN IN RA
				M 
 = 0000                      C  	INTROM=0 
 = 0001                      C  	LPTSW=1 
 = 0001                      C  	NCRLPT=1 
 = 0000                      C  	NCRCAS=0 
Microsoft (R) Macro Assembler  Version 4.00                 7/13/20 11:13:55

IBMRES - IBM compatible reserved words / MLC                Page     1-4
Common file to produce 2-segment 8086 GW-CPM BASIC          

 = 0000                      C  	ISC=0			;FOR ISC VERSION 
 = 0000                      C  	LPT3=0			;THREE LPT DRIVER VERSION(QUME,OKIA,C
				ENT) 
 = 0000                      C  	TSLPT=0 
                             C   
 = 0000                      C  	DOS=0			;ON TO GEN ROUTINES FOR DOS 
 = 0001                      C  	DISK=1			;FILE I/O FEATURES 
 = 0000                      C  	TIMSHR=0		;NO TIME-SHARING DISK 
 = 0000                      C  	TSDISK=0		;NO TIME-SHARING DISK FOR US 
 = 0000                      C  	SPCDSK=0		;MAY HAVE MM'S DISK CODE 
 = 0000                      C  	SPCNDS=0 
 = 0001                      C  	FAST=1			;CONSTANT COMPRESSION, RENUM & FRIEND
				S 
 = 0000                      C  	KEYSTA=0 
 = 0000                      C  	ISIS=0			;FOR VERSION TO RUN UNDER INTEL'S ISI
				S II DOS 
 = 0000                      C  	MDSISS=0		;FOR MDS VERSION THAT RUNS UNDER ISI
				S-II 
 = 0001                      C  	CPM=1			;FOR CPM compatible operating systems 
 = 0001                      C  	CPM2=1			;VERSION 2. CPM 
 = 0000                      C  	CPM86=0			;FOR CP/M-86 operating system 
 = 0001                      C  	SCP=1			;MS-DOS operating system 
 = 0000                      C  	CPMCON=0 
 = 0000                      C  	CPMSER=0		;CHECK CPM SERIAL #'S 
 = 0000                      C  	CPMADD=0		;FOR VERSION TO RUN ON ADDS CPM 
 = 0000                      C  	CPMA75=0		;FOR VERSION TO RUN ON ADDS SYSTEM 7
				5 
                             C  				;CP/M 
 = 0000                      C  	CPMRSH=0		;FOR RADIO SHACK CPM/M 
 = 0000                      C  	CPM110=0		;FOR CP/M @1100 HEX (INTERALIA) 
 = 0000                      C  	CPMSBC=0		;FOR VERSION TO RUN ON SBC CP/M AT 4
				100H 
 = 0000                      C  	CPMPER=0		;FOR PERTEC VERSION OF CPM 
 = 0000                      C  	CPMLIF=0		;LIFEBOAT CP/M AT 4200H 
 = 0000                      C  	CPMMDS=0		;MOHAWK DATA SYSTEMS CP/M 
 = 0000                      C  	CPMCON=0 
 = 0000                      C  	Z80=0 
 = 0001                      C  	DISK=1 
 = 0001                      C  	NCRLPT=1 
 = 0001                      C  	RSTLES=1 
 = 0000                      C  	DRVPOS=CPMADD 
 = 0000                      C  	TRNCHR=CPMADD 
 = 0000                      C  	INLADD=CPMADD 
 = 0001                      C  	LISTEN=1		;ON MEANS LISTEN FOR ^C 
 = 0001                      C  	LISTEN=1 
 = 0000                      C  	LEN2=0 
 = 0001                      C  	LEN2=1 
 = 0001                      C  	HEXOCT=1 
 = 0002                      C  	LENGTH=2 
 = 0001                      C  	RSTLES=1 
 = 0001                      C  	FIVLPT=1 
 = 0000                      C  	I8251=0			;THIS SWITCH IS USED FOR ROSEMOUNT V
				ERSION 
 = 0001                      C  	CONTRO=1		;ALLOW ^O 
Microsoft (R) Macro Assembler  Version 4.00                 7/13/20 11:13:55

IBMRES - IBM compatible reserved words / MLC                Page     1-5
Common file to produce 2-segment 8086 GW-CPM BASIC          

 = 0001                      C  	LEN3=LEN2 OR CASSW 
                             C   
                             C   
                             C   
 = 0001                      C  	STRING=1 
 = 0001                      C  	NCRLPT=1 
                             C   
                             C  ; *** OEM Switches which need to be defaulted t
				o 0 
                             C  ; 
 = 0000                      C  	CMPUTN=0 
 = 0000                      C  	DUPONT=0 
 = 0000                      C  	EXIDY=0 
 = 0000                      C  	GESBC=0 
 = 0000                      C  	HEATH=0 
 = 0000                      C  	LOKHED=0 
 = 0000                      C  	MOSTEK=0 
 = 0000                      C  	TEK=0 
 = 0000                      C  	TRSER2=0 
 = 0000                      C  	NASCOM=0 
 = 0000                      C  	NATROM=0 
 = 0000                      C  	NCRBAS=0 
 = 0000                      C  	NCRDEB=0 
 = 0000                      C  	NCRDEB=0 
 = 0000                      C  	NCRELS=0 
 = 0000                      C  	ONTEL=0 
 = 0000                      C  	PCS=0 
 = 0000                      C  	SGSATS=0 
 = 0000                      C  	ALTAIR=0 
 = 0000                      C  	DMC=0 
 = 0000                      C  	PANBAS=0 
 = 0000                      C  	XTNSYS=0 
 = 0000                      C  	NECBAS=0 
                             C  ;**********************************************
				********************* 
                             C  ; Z80 related macros 
                             C  ;**********************************************
				********************* 
 = 0001                      C  	Z80=1			;FOR VERSION THAT RUNS ON BOTH 
                             C  				;8080'S AND ZILOG Z-80'S 
 = 0001                      C  	Z80MAC=1		;USE 8080 MACROS INSTEAD OF Z80 INST
				RUCTIONS 
 = 0000                      C  	Z80=0 
 = 0001                      C  	Z80=1 
                             C  LDIR	MACRO 
                             C  	MOV	WORD PTR A,WORD PTR M 
                             C  	STAX	D 
                             C  	INXF	H 
                             C  	INXF	D 
                             C  	DCXF	B 
                             C  	MOV	WORD PTR A,WORD PTR B 
                             C  	ORA	C 
                             C  	JNZ	_-8D 
                             C  ENDM 
Microsoft (R) Macro Assembler  Version 4.00                 7/13/20 11:13:55

IBMRES - IBM compatible reserved words / MLC                Page     1-6
Common file to produce 2-segment 8086 GW-CPM BASIC          

                             C  LDDR	MACRO 
                             C  	MOV	WORD PTR A,WORD PTR M 
                             C  	STAX	D 
                             C  	DCXF	H 
                             C  	DCXF	D 
                             C  	DCXF	B 
                             C  	MOV	WORD PTR A,WORD PTR B 
                             C  	ORA	C 
                             C  	JNZ	_-8D 
                             C  ENDM 
                             C  DJNZ	MACRO	    DEST 
                             C  	DCR	B 
                             C  	JNZ	DEST 
                             C  ENDM 
                             C  ;**********************************************
				********************* 
                             C  ; Define reset routines. 
                             C  ;**********************************************
				********************* 
                             C  FSIGN	MACRO 
                             C  	CALL	SIGN 
                             C  ENDM 
                             C  PUSHM	MACRO 
                             C  	MOV	WORD PTR C,WORD PTR M 
                             C  	INX	H 
                             C  	MOV	WORD PTR B,WORD PTR M 
                             C  	INX	H 
                             C  	PUSH	WORD PTR B 
                             C  ENDM 
                             C  SYNCHK	MACRO	X 
                             C  	CALL	SYNCHR 
                             C  	DB	OFFSET X 
                             C  ENDM 
                             C  OUTCHR	MACRO 
                             C  	CALL	OUTDO 
                             C  ENDM 
                             C  CHRGET	MACRO 
                             C  	CALL	CHRGTR 
                             C  ENDM 
                             C  COMPAR	MACRO 
                             C  	CALL	DCOMPR 
                             C  ENDM 
                             C  GETYPE	MACRO 
                             C  	CALL	GETYPR 
                             C  ENDM 
                             C  COMPAR	MACRO 
                             C  	DB	73O 
                             C  	DB	332O 
                             C   ENDM 
                             C  ACRLF	MACRO 
                             C  	DB	13D 
                             C  	DB	10D 
                             C  ENDM 
                             C  PUSHR	MACRO 
Microsoft (R) Macro Assembler  Version 4.00                 7/13/20 11:13:55

IBMRES - IBM compatible reserved words / MLC                Page     1-7
Common file to produce 2-segment 8086 GW-CPM BASIC          

                             C  	PUSH	WORD PTR D 
                             C  	PUSH	WORD PTR B 
                             C  ENDM 
                             C  POPR	MACRO 
                             C  	POP	WORD PTR B 
                             C  	POP	WORD PTR D 
                             C  ENDM 
                             C  MOVRI	MACRO	B,C,D,E 
                             C  	DB	1O		; "LXI  B" 
                             C  	DB	OFFSET C 
                             C  	DB	OFFSET B 
                             C  	DB	21O		; "LXI  D" 
                             C  	DB	OFFSET E 
                             C  	DB	OFFSET D 
                             C  ENDM 
                             C  INST	MACRO	X 
                             C  	DB	OX 
                             C  ENDM 
                             C   
                             C   
 = 000F                      C  	CONTO=15		;CHARACTER TO SUPRESS OUTPUT (USUALL
				Y CONTROL-O) 
 = 0000                      C  	DBLTRN=0		;FOR DOUBLE PRECISION TRANSCENDENTAL
				S 
                             C   
 = 000E                      C  	CLMWID=14D		;MAKE COMMA COLUMNS FOURTEEN CHARA
				CTERS 
 = 0080                      C  	DATPSC=128D		;NUMBER OF DATA BYTES IN DISK SEC
				TOR 
 = 0050                      C  	LINLN=80D		;TERMINAL LINE LENGTH 
 = 0084                      C  	LPTLEN=132D 
 = 00FF                      C  	BUFLEN=255		;LONG LINES 
 = 0028                      C  	NAMLEN=40D		;MAXIMUM LENGTH NAME -- 3 TO 127 
                             C   
 = 006E                      C  	NUMLEV=110D		;NUMBER OF STACK LEVELS RESERVED 
                             C  				;BY AN EXPLICIT CALL TO GETSTK 
 = 0004                      C  	STRSIZ=4 
 = 0003                      C  	STRSIZ=3 
 = 0003                      C  	NUMTMP=3		;NUMBER OF STRING TEMPORARIES 
 = 000A                      C  	NUMTMP=10 
                             C   
 0008                        C  	.RADIX	8 
                             C  ; 
                             C  ; Useful macros 
                             C  ; 
                             C   
                             C  ACRLF   MACRO 
                             C          DB      13D 
                             C          DB      10D 
                             C  ENDM 
                             C   
                             C  INS86   MACRO   A,B,C,D 
                             C          DB      A&O 
                             C  IFNB    <B> 
Microsoft (R) Macro Assembler  Version 4.00                 7/13/20 11:13:55

IBMRES - IBM compatible reserved words / MLC                Page     1-8
Common file to produce 2-segment 8086 GW-CPM BASIC          

                             C          DB      B&O 
                             C  ENDIF 
                             C  IFNB    <D> 
                             C          DB      C&O 
                             C          DB      D&O 
                             C  ENDIF 
                             C  IFB     <D> 
                             C   IFNB   <C> 
                             C          DW      C 
                             C    ENDIF 
                             C   ENDIF 
                             C  ENDM 
                             C   
                             C  CALLOS  MACRO 
                             C          CALL    CPMENT 
                             C  ENDM 
                             C   
                             C  POPR    MACRO 
                             C          POP     CX 
                             C          POP     DX 
                             C  ENDM 
                             C   
                             C  ADR     MACRO   X 
                             C          DW      X 
                             C  ENDM 
                             C   
                             C  DC      MACRO   ARG 
                             C          IRPC    ZZ,<ARG> 
                             C              IFDIF       <ZZ>,<">
                             C                  DB      "&ZZ&" 
                             C                  _A="&ZZ&" 
                             C              ENDIF 
                             C          ENDM 
                             C  ENDM 
                             C  ; 
Microsoft (R) Macro Assembler  Version 4.00                 7/13/20 11:13:55

IBMRES - IBM compatible reserved words / MLC                Page     1-9
Common file to produce 2-segment 8086 GW-CPM BASIC          

                             C          PAGE 
                             C   
                             C   
                             C   
                             C  ; 
                             C  ; Reserve word table generating Macros 
                             C  ; 
                             C  un_def  MACRO   RESWRD 
                             C          %OUT +++ Undefined reserved word - &RES
				WRD 
                             C  ENDM 
                             C   
                             C  T       MACRO   RESWRD 
                             C          QQ=QQ+1 
                             C          PUBLIC  $&RESWRD 
                             C          $&RESWRD=QQ 
                             C  ENDM 
                             C   
                             C  Q       MACRO   RESWRD 
                             C   IFDEF  $&RESWRD 
                             C          $F=0 
                             C    IRPC  XX,<RESWRD> 
                             C     IF   $F 
                             C          $Q="&XX&" 
                             C          DB      "&XX&" 
                             C     ENDIF 
                             C     IFE  $F-1 
                             C          .XLIST 
                             C     ENDIF 
                             C          $F=$F+1 
                             C    ENDM 
                             C          .LIST 
                             C          ORG     $-1 
                             C          DB      $Q+128D 
                             C          DB      $&RESWRD 
                             C   ELSE 
                             C          un_def  RESWRD 
                             C   ENDIF 
                             C  ENDM 
                             C   
                             C  QF      MACRO   RESWRD 
                             C   IFDEF  $&RESWRD 
                             C          $F=0 
                             C    IRPC  XX,<RESWRD> 
                             C     IF   $F 
                             C          $Q="&XX&" 
                             C          DB      "&XX&" 
                             C     ENDIF 
                             C     IFE  $F-1 
                             C          .XLIST 
                             C     ENDIF 
                             C          $F=$F+1 
                             C    ENDM 
                             C          .LIST 
Microsoft (R) Macro Assembler  Version 4.00                 7/13/20 11:13:55

IBMRES - IBM compatible reserved words / MLC                Page     1-10
Common file to produce 2-segment 8086 GW-CPM BASIC          

                             C          ORG     $-1 
                             C          DB      $Q+128D 
                             C          DB      $&RESWRD-128D 
                             C   ELSE 
                             C          un_def  RESWRD 
                             C   ENDIF 
                             C  ENDM 
                             C   
                             C  ; 
                             C  R       MACRO   RESWRD 
                             C          extrn   RESWRD:NEAR 
                             C          DW      RESWRD 
                             C          QQ=QQ+1 
                             C          PUBLIC  $&RESWRD 
                             C          $&RESWRD=QQ 
                             C  ENDM 
                             C   
                             C  R2      MACRO   RESWRD,RESDSP 
                             C          extrn   RESDSP:NEAR 
                             C          DW      RESDSP 
                             C          QQ=QQ+1 
                             C          PUBLIC  $&RESWRD 
                             C          $&RESWRD=QQ 
                             C  ENDM 
                             C  ; 
Microsoft (R) Macro Assembler  Version 4.00                 7/13/20 11:13:55

IBMRES - IBM compatible reserved words / MLC                Page     1-11
Common file to produce 2-segment 8086 GW-CPM BASIC          

                             C  PAGE 
                             C   
                                 
                                 
                                	SUBTTL  Equates and External Declarations 
                                	TITLE   IBMRES - IBM compatible reserved words
				 / MLC 
                                COMMENT	* 
                                 
                                --------- --- ---- -- --------- 
                                COPYRIGHT (C) 1982 BY MICROSOFT 
                                --------- --- ---- -- --------- 
                                 
                                This module is used to create GW-BASICs with IB
				M PC compatible 
                                reserved word tokens.  The reserved word tables
				 were created by 
                                cleaning up a copy of the tables from BINTRP.  
				The code and tables 
                                to handle the extended reserved words was taken
				 from L2RESS.MAC and 
                                modified as necessary. 
                                	* 
                                 
 = 0000                         GWLEV2=0			;GW BASIC version 2.0 features 
                                 
                                	.SALL 
 000A                           	.RADIX	10 
                                 
                                 
                                	PUBLIC	$KEY2B,$COM2B,$PEN2B,$STR2B 
                                	EXTRN	CHRGTR:NEAR 
                                	EXTRN	DATEF:NEAR 
                                	EXTRN	LABBCK:NEAR 
                                	EXTRN	MAKUPL:NEAR 
                                	EXTRN	NOTRFN:NEAR 
                                	EXTRN	PARCHK:NEAR,PENS:NEAR,PLOOP2:NEAR,PPSWRT
				:NEAR 
                                	EXTRN	RENCRN:NEAR 
                                	EXTRN	STRIGS:NEAR 
                                	EXTRN	TIMEF:NEAR,TSTANM:NEAR 
                                 
 0000                           DSEG	SEGMENT PUBLIC 'DATASG' 
                                	ASSUME DS:DSEG 
                                	EXTRN	FLGOVC:WORD,TEMPA:WORD 
 0000                           DSEG	ENDS 
                                 
                                 
                                 
                                ; 
                                ; THESE MACRO CALLS DEFINE THE RESWRD VALUES 
                                ; AND THE TABLE DISPATCH FOR STATEMENTS AND FUN
				CTIONS 
                                ; 
Microsoft (R) Macro Assembler  Version 4.00                 7/13/20 11:13:55

IBMRES - IBM compatible reserved words / MLC                Page     1-12
Equates and External Declarations                           

                                ; STATEMENTS: 
                                ; 
                                 
                                PUBLIC	STMDSP 
 0000                           STMDSP:				;MARKS START OF STATEMENT LIST 
 = 0080                         	QQ=128 
                                	R2	END,ENDST 
                                	R	FOR 
                                	R	NEXT 
                                	R2	DATA,DATAS 
                                	R	INPUT 
                                	R	DIM 
                                	R	READ 
                                	R	LET 
                                	R	GOTO 
                                	R	RUN 
                                	R2	IF,IFS 
                                	R	RESTORE 
                                	R	GOSUB 
                                	R	RETURN 
                                	R	REM 
                                	R	STOP 
                                	R	PRINT 
                                	R	CLEAR 
                                	R	LIST 
                                	R2	NEW,SCRATH 
                                	R2	ON,ONGOTO 
                                	R2	WAIT,FNWAIT 
                                	R	DEF 
                                	R	POKE 
                                	R	CONT 
                                	R2	DUMMY,SNERR	;padding 
                                	R2	DUMMY,SNERR	;padding 
                                	R2	OUT,FNOUT 
                                	R	LPRINT 
                                	R	LLIST 
                                	R2	DUMMY,SNERR	;padding 
                                	R2	WIDTH,WIDTHS 
                                	R2	ELSE,ELSES 
                                	R2	TRON,TON 
                                	R2	TROFF,TOFF 
                                	R	SWAP 
                                	R	ERASE 
                                	R	EDIT 
                                	R2	ERROR,ERRORS 
                                	R	RESUME 
                                	R	DELETE 
                                	R	AUTO 
                                	R2	RENUM,RESEQ 
                                	R	DEFSTR 
                                	R	DEFINT 
                                	R2	DEFSNG,DEFREA 
                                	R	DEFDBL 
                                	R	LINE 
Microsoft (R) Macro Assembler  Version 4.00                 7/13/20 11:13:55

IBMRES - IBM compatible reserved words / MLC                Page     1-13
Equates and External Declarations                           

                                	R	WHILE 
                                	R	WEND 
                                	R2	CALL,CALLS 
                                	R2	DUMMY,SNERR	;padding 
                                	R2	DUMMY,SNERR	;padding 
                                	R2	DUMMY,SNERR	;padding 
                                	R	WRITE 
                                	R	OPTION 
                                	R2	RANDOMIZE,RANDOM 
                                	R	OPEN 
                                	R	CLOSE 
                                	R	LOAD 
                                	R	MERGE 
                                	R	SAVE 
                                	R	COLOR 
                                	R	CLS 
                                	R	MOTOR 
                                	R	BSAVE 
                                	R	BLOAD 
                                	R2	SOUND,SOUNDS 
                                	R2	BEEP,BEEPS 
                                	R	PSET 
                                	R	PRESET 
                                	R	SCREEN 
                                	R2	KEY,KEYS 
 = 00C9                         	$KEY2B=0+QQ		;value of KEY 2-byte token 
                                	R	LOCATE 
                                 
                                PUBLIC	NUMCMD 
 = 004A                         	NUMCMD=QQ-$END+1 
                                 
                                ; 
                                ; TOKENS 
                                ; 
                                 
                                ; 
                                ;QQ MUST BE SET SO TOKENS START AT RIGHT PLACE 
                                ; 
                                 
 = 00CB                         	QQ=QQ+1 
                                 
                                	T	TO 
                                	T	THEN 
                                PUBLIC	THENTK 
 = 00CD                         	THENTK=QQ 
                                	T	TAB 
                                PUBLIC	TABTK 
 = 00CE                         	TABTK=QQ 
                                	T	STEP 
                                PUBLIC	STEPTK 
 = 00CF                         	STEPTK=QQ 
                                	T	USR 
                                PUBLIC	USRTK 
 = 00D0                         	USRTK=QQ 
Microsoft (R) Macro Assembler  Version 4.00                 7/13/20 11:13:55

IBMRES - IBM compatible reserved words / MLC                Page     1-14
Equates and External Declarations                           

                                	T	FN 
                                PUBLIC	FNTK 
 = 00D1                         	FNTK=QQ 
                                	T	SPC 
                                PUBLIC	SPCTK 
 = 00D2                         	SPCTK=QQ 
                                	T	NOT 
                                PUBLIC	NOTTK 
 = 00D3                         	NOTTK=QQ 
                                	T	ERL 
                                PUBLIC	ERLTK 
 = 00D4                         	ERLTK=QQ 
                                	T	ERR 
                                PUBLIC	ERCTK 
 = 00D5                         	ERCTK=QQ 
                                	T	STRING$ 
                                	T	USING 
                                PUBLIC	USINTK 
 = 00D7                         	USINTK=QQ 
                                	T	INSTR 
                                PUBLIC	INSRTK 
 = 00D8                         	INSRTK=QQ 
                                	T	DUMMY 
                                PUBLIC	SNGQTK 
 = 00D9                         	SNGQTK=QQ 
                                	T	VARPTR 
                                	T	CSRLIN 
                                PUBLIC	CLINTK 
 = 00DB                         	CLINTK=QQ 
                                	T	POINT 
                                	T	OFF 
                                	T	INKEY$ 
                                 
                                ; 
                                ; OPERATORS 
                                ; 
                                 
 = 00E5                         	QQ=QQ+7 
                                 
                                	T	DUMMY 
                                PUBLIC	GREATK 
 = 00E6                         	GREATK=QQ 
                                	T	DUMMY 
                                PUBLIC	EQULTK 
 = 00E7                         	EQULTK=QQ 
                                	T	DUMMY 
                                PUBLIC	LESSTK 
 = 00E8                         	LESSTK=QQ 
                                	T	DUMMY 
                                PUBLIC	PLUSTK 
 = 00E9                         	PLUSTK=QQ 
                                	T	DUMMY 
                                PUBLIC	MINUTK 
 = 00EA                         	MINUTK=QQ 
Microsoft (R) Macro Assembler  Version 4.00                 7/13/20 11:13:55

IBMRES - IBM compatible reserved words / MLC                Page     1-15
Equates and External Declarations                           

                                	T	DUMMY 
                                PUBLIC	MULTK 
 = 00EB                         	MULTK=QQ 
                                	T	DUMMY 
                                PUBLIC	DIVTK 
 = 00EC                         	DIVTK=QQ 
                                	T	DUMMY 
                                PUBLIC	EXPTK 
 = 00ED                         	EXPTK=QQ 
                                	T	AND 
                                	T	OR 
                                	T	XOR 
                                	T	EQV 
                                	T	IMP 
                                	T	MOD 
                                	T	DUMMY 
                                PUBLIC	IDIVTK 
 = 00F4                         	IDIVTK=QQ 
                                PUBLIC	LSTOPK 
 = 000C                         	LSTOPK=QQ+1-PLUSTK 
                                 
                                ; 
                                ; FUNCTIONS - 2 byte tokens, the 1st byte is FF
				 
                                ; 
                                 
 = 0080                         	QQ=128 
                                PUBLIC	FUNDSP 
 0094                           FUNDSP: 
                                	R	LEFT$ 
                                PUBLIC	ONEFUN 
 = 0081                         	ONEFUN=QQ 
                                	R	RIGHT$ 
                                	R	MID$ 
                                PUBLIC	MIDTK 
 = 0083                         	MIDTK=QQ 
                                	R	SGN 
                                	R2	INT,VINT 
                                	R2	ABS,ABSFN 
                                	R	SQR 
                                PUBLIC	SQRTK 
 = 0087                         	SQRTK=QQ 
                                	R	RND 
                                	R	SIN 
                                	R	LOG 
                                	R	EXP 
                                	R	COS 
                                	R	TAN 
                                	R	ATN 
                                PUBLIC	ATNTK 
 = 008E                         	ATNTK=QQ 
                                	R	FRE 
                                	R2	INP,FNINP 
                                	R	POS 
Microsoft (R) Macro Assembler  Version 4.00                 7/13/20 11:13:55

IBMRES - IBM compatible reserved words / MLC                Page     1-16
Equates and External Declarations                           

                                	R	LEN 
                                	R	STR$ 
                                	R	VAL 
                                	R	ASC 
                                	R	CHR$ 
                                	R	PEEK 
                                	R	SPACE$ 
                                	R2	OCT$,STRO$ 
                                	R2	HEX$,STRH$ 
                                	R	LPOS 
                                PUBLIC	LASNUM 
 = 009B                         	LASNUM=QQ 
                                	R2	CINT,FRCINT 
                                	R2	CSNG,FRCSNG 
                                	R2	CDBL,FRCDBL 
                                	R2	DUMMY,FIXER 
                                PUBLIC	$FIX 
 = 009F                         	$FIX=QQ 
                                	R2	PEN,PENF 
 = FFA0                         	$PEN2B=0+(400O*377O)+QQ	;value of PEN 2-byte t
				oken 
                                	R2	STICK,STICKF 
                                	R2	STRIG,STRIGF 
 = FFA2                         	$STR2B=0+(400O*377O)+QQ	;value of STRIG 2-byte
				 token 
                                	R	EOF 
                                	R	LOC 
                                	R	LOF 
                                 
                                ; 
                                ; THE FOLLOWING TABLES ARE THE ALPHABETIC DISPA
				TCH TABLE 
                                ; FOLLOWED BY THE RESERVED WORD TABLE ITSELF 
                                ; 
                                PUBLIC	ALPTAB 
 00DE                           ALPTAB: 
                                 
 00DE  0112 R                   	DW	OFFSET ATAB 
 00E0  0123 R                   	DW	OFFSET BTAB 
 00E2  0132 R                   	DW	OFFSET CTAB 
 00E4  0166 R                   	DW	OFFSET DTAB 
 00E6  018F R                   	DW	OFFSET ETAB 
 00E8  01B4 R                   	DW	OFFSET FTAB 
 00EA  01C0 R                   	DW	OFFSET GTAB 
 00EC  01CF R                   	DW	OFFSET HTAB 
 00EE  01D4 R                   	DW	OFFSET ITAB 
 00F0  01F0 R                   	DW	OFFSET JTAB 
 00F2  01F1 R                   	DW	OFFSET KTAB 
 00F4  01F5 R                   	DW	OFFSET LTAB 
 00F6  022B R                   	DW	OFFSET MTAB 
 00F8  023D R                   	DW	OFFSET NTAB 
 00FA  0248 R                   	DW	OFFSET OTAB 
 00FC  0261 R                   	DW	OFFSET PTAB 
 00FE  0284 R                   	DW	OFFSET QTAB 
Microsoft (R) Macro Assembler  Version 4.00                 7/13/20 11:13:55

IBMRES - IBM compatible reserved words / MLC                Page     1-17
Equates and External Declarations                           

 0100  0285 R                   	DW	OFFSET RTAB 
 0102  02BA R                   	DW	OFFSET STAB 
 0104  02FE R                   	DW	OFFSET TTAB 
 0106  0315 R                   	DW	OFFSET UTAB 
 0108  031E R                   	DW	OFFSET VTAB 
 010A  0328 R                   	DW	OFFSET WTAB 
 010C  0340 R                   	DW	OFFSET XTAB 
 010E  0344 R                   	DW	OFFSET YTAB 
 0110  0345 R                   	DW	OFFSET ZTAB 
                                 
                                 
                                PUBLIC	RESLST 
 0112                           RESLST: 
                                 
 0112                           ATAB: 
                                	Q	AUTO 
                                	Q	AND 
                                	QF	ABS 
                                	QF	ATN 
                                	QF	ASC 
 0122  00                       	DB	0 
 0123                           BTAB: 
                                	Q	BSAVE 
                                	Q	BLOAD 
                                	Q	BEEP 
 0131  00                       	DB	0 
 0132                           CTAB: 
                                	Q	COLOR 
                                	Q	CLOSE 
                                	Q	CONT 
                                	Q	CLEAR 
                                	Q	CSRLIN 
                                	QF	CINT 
                                	QF	CSNG 
                                	QF	CDBL 
                                	QF	COS 
                                	QF	CHR$ 
                                	Q	CALL 
                                	Q	CLS 
 0165  00                       	DB	0 
 0166                           DTAB: 
                                	Q	DELETE 
                                	Q	DATA 
                                	Q	DIM 
                                	Q	DEFSTR 
                                	Q	DEFINT 
                                	Q	DEFSNG 
                                	Q	DEFDBL 
                                	Q	DEF 
 018E  00                       	DB	0 
 018F                           ETAB: 
                                	Q	ELSE 
                                	Q	END 
                                	Q	ERASE 
Microsoft (R) Macro Assembler  Version 4.00                 7/13/20 11:13:55

IBMRES - IBM compatible reserved words / MLC                Page     1-18
Equates and External Declarations                           

                                	Q	EDIT 
                                	Q	ERROR 
                                	Q	ERL 
                                	Q	ERR 
                                	QF	EXP 
                                	QF	EOF 
                                	Q	EQV 
 01B3  00                       	DB	0 
 01B4                           FTAB: 
                                	Q	FOR 
                                	Q	FN 
                                	QF	FRE 
                                	QF	FIX 
 01BF  00                       	DB	0 
 01C0                           GTAB: 
                                	Q	GOTO 
 01C4  4F                       	DB	"O" 
 01C5  20                       	DB	" " 
 01C6  54                       	DB	"T" 
 01C7  CF                       	DB	"O"+128D 
 01C8  89                       	DB	OFFSET $GOTO 
                                	Q	GOSUB 
 01CE  00                       	DB	0 
 01CF                           HTAB: 
                                	QF	HEX$ 
 01D3  00                       	DB	0 
 01D4                           ITAB: 
                                	Q	INPUT 
                                	Q	IF 
                                	Q	INSTR 
                                	QF	INT 
                                	QF	INP 
                                	Q	IMP 
                                	Q	INKEY$ 
 01EF  00                       	DB	0 
 01F0                           JTAB: 
 01F0  00                       	DB	0 
 01F1                           KTAB: 
                                	Q	KEY 
 01F4  00                       	DB	0 
 01F5                           LTAB: 
                                	Q	LOCATE 
                                	Q	LPRINT 
                                	Q	LLIST 
                                	QF	LPOS 
                                	Q	LET 
                                	Q	LINE 
                                	Q	LOAD 
                                	Q	LIST 
                                	QF	LOG 
                                	QF	LOC 
                                	QF	LEN 
                                	QF	LEFT$ 
                                	QF	LOF 
Microsoft (R) Macro Assembler  Version 4.00                 7/13/20 11:13:55

IBMRES - IBM compatible reserved words / MLC                Page     1-19
Equates and External Declarations                           

 022A  00                       	DB	0 
 022B                           MTAB: 
                                	Q	MOTOR 
                                	Q	MERGE 
                                	Q	MOD 
                                	QF	MID$ 
 023C  00                       	DB	0 
 023D                           NTAB: 
                                	Q	NEXT 
                                	Q	NEW 
                                	Q	NOT 
 0247  00                       	DB	0 
 0248                           OTAB: 
                                	Q	OPEN 
                                	Q	OUT 
                                	Q	ON 
                                	Q	OR 
                                	QF	OCT$ 
                                	Q	OPTION 
                                	Q	OFF 
 0260  00                       	DB	0 
 0261                           PTAB: 
                                	Q	PRINT 
                                	Q	POKE 
                                	QF	POS 
                                	QF	PEEK 
                                	Q	PSET 
                                	Q	PRESET 
                                	Q	POINT 
                                	QF	PEN 
 0283  00                       	DB	0 
 0284                           QTAB: 
 0284  00                       	DB	0 
 0285                           RTAB: 
                                	Q	RUN 
                                	Q	RETURN 
                                	Q	READ 
                                	Q	RESTORE 
                                	Q	REM 
                                	Q	RESUME 
                                	QF	RIGHT$ 
                                	QF	RND 
                                	Q	RENUM 
                                	Q	RANDOMIZE 
 02B9  00                       	DB	0 
 02BA                           STAB: 
                                	Q	SCREEN 
                                	Q	STOP 
                                	Q	SWAP 
                                	Q	SAVE 
 02CC  50                       	DB	"P" 
 02CD  43                       	DB	"C" 
 02CE  A8                       	DB	"("+128D 
 02CF  D2                       	DB	OFFSET SPCTK 
Microsoft (R) Macro Assembler  Version 4.00                 7/13/20 11:13:55

IBMRES - IBM compatible reserved words / MLC                Page     1-20
Equates and External Declarations                           

                                	Q	STEP 
                                	QF	SGN 
                                	QF	SQR 
                                	QF	SIN 
                                	QF	STR$ 
                                	Q	STRING$ 
                                	QF	SPACE$ 
                                	Q	SOUND 
                                	QF	STICK 
                                	QF	STRIG 
 02FD  00                       	DB	0 
 02FE                           TTAB: 
                                	Q	THEN 
                                	Q	TRON 
                                	Q	TROFF 
 030B  41                       	DB	"A" 
 030C  42                       	DB	"B" 
 030D  A8                       	DB	"("+128D 
 030E  CE                       	DB	OFFSET TABTK 
                                	Q	TO 
                                	QF	TAN 
 0314  00                       	DB	0 
 0315                           UTAB: 
                                	Q	USING 
                                	Q	USR 
 031D  00                       	DB	0 
 031E                           VTAB: 
                                	QF	VAL 
                                	Q	VARPTR 
 0327  00                       	DB	0 
 0328                           WTAB: 
                                	Q	WIDTH 
                                	Q	WAIT 
                                	Q	WHILE 
                                	Q	WEND 
                                	Q	WRITE 
 033F  00                       	DB	0 
 0340                           XTAB: 
                                	Q	XOR 
 0343  00                       	DB	0 
 0344                           YTAB: 
 0344  00                       	DB	0 
 0345                           ZTAB: 
 0345  00                       	DB	0 
                                 
                                PUBLIC	SPCTAB 
 0346                           SPCTAB: 
 0346  AB                       	DB	"+"+128D 
 0347  E9                       	DB	OFFSET PLUSTK 
 0348  AD                       	DB	"-"+128D 
 0349  EA                       	DB	OFFSET MINUTK 
 034A  AA                       	DB	"*"+128D 
 034B  EB                       	DB	OFFSET MULTK 
 034C  AF                       	DB	"/"+128D 
Microsoft (R) Macro Assembler  Version 4.00                 7/13/20 11:13:55

IBMRES - IBM compatible reserved words / MLC                Page     1-21
Equates and External Declarations                           

 034D  EC                       	DB	OFFSET DIVTK 
 034E  DE                       	DB	"^"+128D 
 034F  ED                       	DB	OFFSET EXPTK 
 0350  DC                       	DB	"\"+128D 
 0351  F4                       	DB	OFFSET IDIVTK 
 0352  A7                       	DB	"'"+128D 
 0353  D9                       	DB	OFFSET SNGQTK 
 0354  BE                       	DB	62+128D 
 0355  E6                       	DB	OFFSET GREATK 
 0356  BD                       	DB	"="+128D 
 0357  E7                       	DB	OFFSET EQULTK 
 0358  BC                       	DB	60+128D 
 0359  E8                       	DB	OFFSET LESSTK 
 035A  00                       	DB	0 
                                 
                                	SUBTTL  Extended reserved words 
                                ;The following are 2 byte tokens, the 1st byte 
				is FE 
                                 
 = 0080                         	QQ=128D 
 035B                           STMDSX: 
                                	R	FILES 
                                	R	FIELD 
                                	R	SYSTEM 
                                	R	NAME 
                                	R	LSET 
                                	R	RSET 
                                	R	KILL 
                                	R	PUT 
                                	R	GET 
                                	R	RESET 
                                	R	COMMON 
                                	R	CHAIN 
                                	R2	DATE$,DATES 
                                	R2	TIME$,TIMES 
                                	R	PAINT 
                                	R2	COM,COMS 
 = FE90                         	$COM2B=0+(400O*376O)+QQ	;value of COM 2-byte t
				oken 
                                	R	CIRCLE 
                                	R	DRAW 
                                	R2	PLAY,PLAYS 
                                	R	TIMER 
                                	R	ERDEV 
                                	R	IOCTL 
                                	R	CHDIR 
                                	R	MKDIR 
                                	R	RMDIR 
                                	R	SHELL 
                                	R	ENVIRON 
                                	R	VIEW 
                                	R	WINDOW 
                                	R	PMAP 
                                	R2	PALETTE,PALETE 
Microsoft (R) Macro Assembler  Version 4.00                 7/13/20 11:13:55

IBMRES - IBM compatible reserved words / MLC                Page     1-22
Extended reserved words                                     

                                	R2	LCOPY,LCOPYS 
                                	R2	CALLS,CALLSL 
                                ;**********************************************
				*************************** 
                                ;*** The DEBUG entry should be the last entry i
				n the FE Dispatch table *** 
                                ;**********************************************
				*************************** 
                                 
                                 
Microsoft (R) Macro Assembler  Version 4.00                 7/13/20 11:13:55

IBMRES - IBM compatible reserved words / MLC                Page     1-23
Extended reserved words                                     

                                	PAGE 
                                ;The following are 2 byte tokens, the 1st byte 
				is FD 
                                 
 = 0080                         	QQ=128D 
 039D                           FUNDSX: 
                                	R	CVI 
                                	R	CVS 
                                	R	CVD 
                                	R	MKI$ 
                                	R	MKS$ 
                                	R	MKD$ 
                                	R2	KTN,KTNFN 
                                	R2	JIS,JISFN 
                                	R2	KPOS,KPOSFN 
                                	R2	KLEN,KLENFN 
                                 
Microsoft (R) Macro Assembler  Version 4.00                 7/13/20 11:13:55

IBMRES - IBM compatible reserved words / MLC                Page     1-24
Extended reserved words                                     

                                	PAGE 
                                PUBLIC	ALPTAX 
 03B1                           ALPTAX: 
                                	ADR	ATABX 
                                	ADR	BTABX 
                                	ADR	CTABX 
                                	ADR	DTABX 
                                	ADR	ETABX 
                                	ADR	FTABX 
                                	ADR	GTABX 
                                	ADR	HTABX 
                                	ADR	ITABX 
                                	ADR	JTABX 
                                	ADR	KTABX 
                                	ADR	LTABX 
                                	ADR	MTABX 
                                	ADR	NTABX 
                                	ADR	OTABX 
                                	ADR	PTABX 
                                	ADR	QTABX 
                                	ADR	RTABX 
                                	ADR	STABX 
                                	ADR	TTABX 
                                	ADR	UTABX 
                                	ADR	VTABX 
                                	ADR	WTABX 
                                	ADR	XTABX 
                                	ADR	YTABX 
                                	ADR	ZTABX 
                                 
Microsoft (R) Macro Assembler  Version 4.00                 7/13/20 11:13:55

IBMRES - IBM compatible reserved words / MLC                Page     1-25
Extended reserved words                                     

                                	PAGE 
 03E5                           RESLSX: 
                                 
 03E5                           ATABX: 
 03E5  00                       	DB	0 
 03E6                           BTABX: 
 03E6  00                       	DB	0 
 03E7                           CTABX: 
                                	Q	CHAIN 
                                	QF	CVI 
                                	QF	CVS 
                                	QF	CVD 
                                	Q	COMMON 
                                	Q	COM 
                                	Q	CIRCLE 
                                	Q	CALLS 
 0409  00                       	DB	0 
 040A                           DTABX: 
                                	Q	DATE$ 
                                	Q	DRAW 
 0413  00                       	DB	0 
 0414                           ETABX: 
 0414  00                       	DB	0 
 0415                           FTABX: 
                                	Q	FIELD 
                                	Q	FILES 
 041F  00                       	DB	0 
 0420                           GTABX: 
                                	Q	GET 
 0423  00                       	DB	0 
 0424                           HTABX: 
 0424  00                       	DB	0 
 0425                           ITABX: 
                                	Q	IOCTL 
 042A  00                       	DB	0 
 042B                           JTABX: 
 042B  00                       	DB	0 
 042C                           KTABX: 
                                	Q	KILL 
 0430  00                       	DB	0 
 0431                           LTABX: 
                                	Q	LSET 
                                	Q	LCOPY 
 043A  00                       	DB	0 
 043B                           MTABX: 
                                	QF	MKI$ 
                                	QF	MKS$ 
                                	QF	MKD$ 
 0447  00                       	DB	0 
 0448                           NTABX: 
                                	Q	NAME 
 044C  00                       	DB	0 
 044D                           OTABX: 
 044D  00                       	DB	0 
Microsoft (R) Macro Assembler  Version 4.00                 7/13/20 11:13:55

IBMRES - IBM compatible reserved words / MLC                Page     1-26
Extended reserved words                                     

 044E                           PTABX: 
                                	Q	PUT 
                                	Q	PAINT 
                                	Q	PLAY 
 045A  00                       	DB	0 
 045B                           QTABX: 
 045B  00                       	DB	0 
 045C                           RTABX: 
                                	Q	RSET 
                                	Q	RESET 
 0465  00                       	DB	0 
 0466                           STABX: 
                                	Q	SYSTEM 
 046C  00                       	DB	0 
 046D                           TTABX: 
                                	Q	TIME$ 
 0472  00                       	DB	0 
 0473                           UTABX: 
 0473  00                       	DB	0 
 0474                           VTABX: 
 0474  00                       	DB	0 
 0475                           WTABX: 
 0475  00                       	DB	0 
 0476                           XTABX: 
 0476  00                       	DB	0 
 0477                           YTABX: 
 0477  00                       	DB	0 
 0478                           ZTABX: 
 0478  00                       	DB	0 
                                 
                                	PUBLIC	NUMGFN,BOTCON,TOPCON,$RNDFN,$DATCO,$REM
				CO,NMREL 
                                	PUBLIC	$CHRFN,$CSNGF,$CDBLF 
 = 0005                         	NUMGFN=(2*MIDTK)-(2*ONEFUN)+1 
 = 000C                         	BOTCON=(SQRTK-ONEFUN)*2 
 = 001B                         	TOPCON=(ATNTK-ONEFUN)*2+1 
 = 0007                         	$RNDFN=$RND-ONEFUN 
 = 004A                         	$DATCO=$DATA-":" 
 = 0055                         	$REMCO=$REM-":" 
 = 0003                         	NMREL=LESSTK-GREATK+1 
 = 0015                         	$CHRFN=$CHR$-ONEFUN 
 = 001C                         	$CSNGF=$CSNG-ONEFUN 
 = 001D                         	$CDBLF=$CDBL-ONEFUN 
                                 
                                 
                                	SUBTTL  CRUNCH code to handle extended reserve
				d words 
                                 
                                PUBLIC	CRUNCX 
 0479  5B                       CRUNCX:	POP	BX		;GET BACK SOURCE POINTER 
 047A  53                       	PUSH	BX		;TO TRY AGAIN 
 047B  4B                       	DEC	BX		;POINT AT CHARACTER 
 047C  E8 0000 E                	CALL	MAKUPL		;CONVERT TO UPPER CASE 
 047F  BB 03B1 R                	MOV	BX,OFFSET ALPTAX	;GET POINTER TO ALPHA DIS
Microsoft (R) Macro Assembler  Version 4.00                 7/13/20 11:13:55

IBMRES - IBM compatible reserved words / MLC                Page     1-27
CRUNCH code to handle extended reserved words               

				PATCH TABLE 
 0482  2C 41                    	SUB	AL,LOW "A"	;SUBTRACT ALPHA OFFSET 
 0484  02 C0                    	ADD	AL,AL		;MULTIPLY BY TWO 
 0486  8A C8                    	MOV	CL,AL		;SAVE OFFSET IN [C] FOR DAD. 
 0488  B5 00                    	MOV	CH,LOW 0	;MAKE HIGH PART OF OFFSET ZERO 
 048A  03 D9                    	ADD	BX,CX		;ADD TO TABLE ADDRESS 
                                	INS86	56 
 048D  8B 17                    	MOV	DX,[BX]		;GET POINTER IN [D,E] 
 048F  5B                       	POP	BX		;GET BACK SOURCE POINTER 
 0490  53                       TRYAGA:	PUSH	BX		;SAVE TXTPTR TO START OF SEARC
				H AREA 
 0491                           LOPPSI: 
 0491  E8 0000 E                	CALL	MAKUPL		;TRANSLATE THIS CHAR TO UPPER CAS
				E 
 0494  8A C8                    	MOV	CL,AL		;SAVE CHAR IN [C] 
                                	INS86	213,362,56,254	;FETCH FROM CODE SEGMENT 
 049A  24 7F                    	AND	AL,LOW 127	;GET RID OF HIGH BIT 
 049C  75 03                    	JNZ	SHORT ??L000 
 049E  E9 0000 E                	JMP	NOTRFN		;IF=0 THEN END OF THIS CHARS RESLT
				 
 04A1                           ??L000: 
 04A1  43                       	INC	BX		;BUMP SOURCE POINTER 
 04A2  3A C1                    	CMP	AL,CL		;COMPARE TO CHAR FROM SOURCE LINE 
 04A4  75 39                    	JNZ	SHORT LOPSKP	;IF NO MATCH, SEARCH FOR NEXT
				 RESWRD 
                                	INS86	213,362,56,254	;FETCH FROM CODE SEGMENT 
 04AA  42                       	INC	DX		;BUMP RESLST POINTER 
 04AB  0A C0                    	OR	AL,AL		;SET CC'S 
 04AD  78 02                    	JS	SHORT ??L001 
 04AF  EB E0                    	JMP	LOPPSI		;SEE IF REST OF CHARS MATCH 
 04B1                           ??L001: 
                                	INS86	213,362,56,254	;FETCH FROM CODE SEGMENT 
 04B5  E8 0000 E                	CALL	MAKUPL		;GET NEXT CHAR IN LINE (MC 6/22/8
				0) 
 04B8  3C 2E                    	CMP	AL,LOW "."	;IS IT A DOT 
 04BA  74 03                    	JZ	SHORT ISVARS	;YES 
 04BC  E8 0000 E                	CALL	TSTANM		;IS IT A LETTER IMMEDIATELY 
                                				;FOLLOWING RESWRD 
 04BF  B0 00                    ISVARS:	MOV	AL,LOW 0	;SET DONUM TO -1 
 04C1  72 03                    	JNAE	SHORT ??L002 
 04C3  E9 0000 E                	JMP	NOTRFN		;IF ALPHA, CANT BE RESERVED WORD 
 04C6                           ??L002: 
 04C6  58                       	POP	AX		;GET RID OF SAVED [H,L] 
                                	INS86	213,362,56,254	;FETCH FROM CODE SEGMENT 
 04CB  0A C0                    	OR	AL,AL		;SET CC'S 
 04CD  59                       	POP	CX		;GET CHAR COUNT OFF STACK 
 04CE  5A                       	POP	DX		;GET DEPOSIT POINTER OFF STACK 
 04CF  79 03                    	JNS	SHORT ??L003 
 04D1  EB 04 90                 	JMP	NOTFNT		;IF MINUS, WASNT FUNCTION TOKEN 
 04D4                           ??L003: 
 04D4  0C 80                    	OR	AL,LOW 200O	;MAKE HIGH ORDER BIT ONE 
 04D6  F9                       	STC			;AND FORCE LEADER BYTE TO BE 375 
 04D7  50                       NOTFNT:	PUSH	AX		;SAVE FN CHAR 
 04D8  B0 FE                    	MOV	AL,LOW 376O	;GET BYTE WHICH PRECEEDS FNS 
Microsoft (R) Macro Assembler  Version 4.00                 7/13/20 11:13:55

IBMRES - IBM compatible reserved words / MLC                Page     1-28
CRUNCH code to handle extended reserved words               

 04DA  1C 00                    	SBB	AL,LOW 0	;MAKE FUNCTION LEADER 375 
 04DC  E9 0000 E                	JMP	RENCRN		;REENTER CRUNCH WITH NEW RESERVED 
				WORD 
                                 
 04DF  5B                       LOPSKP:	POP	BX		;RESTORE UNDEFILED TEXT POINTER
				 
 04E0                           LOPSK2: 
                                	INS86	213,362,56,254	;FETCH FROM CODE SEGMENT 
 04E4  42                       	INC	DX		;BUMP RESLST POINTER 
 04E5  0A C0                    	OR	AL,AL		;SET CC'S 
 04E7  78 02                    	JS	SHORT ??L004 
 04E9  EB F5                    	JMP	LOPSK2		;NOT END OF RESWRD, KEEP SKIPPING 
 04EB                           ??L004: 
 04EB  42                       	INC	DX		;POINT AFTER TOKEN 
 04EC  EB A2                    	JMP	TRYAGA		;TRY ANOTHER RESWRD 
                                 
                                	SUBTTL  LIST code for extended reserved words 
                                 
 04EE  C3                       BUFRET:	RET 
                                 
 04EF  8A 07                    NEWFUN:	MOV	AL,BYTE PTR [BX]	;GET FUNCTION NUMB
				ER 
 04F1  24 7F                    	AND	AL,LOW 177O	;TAKE OFF HIGH BIT 
 04F3  EB 0A                    	JMP	SHORT BUFCON 
                                 
                                PUBLIC	LISTX 
 04F5  3C FD                    LISTX:	CMP	AL,LOW 375O	;IS IT A NEW FUNCTION 
 04F7  74 F6                    	JZ	SHORT NEWFUN 
 04F9  3C FE                    	CMP	AL,LOW 376O	;IS IT A NEW STATEMENT 
 04FB  75 F1                    	JNZ	SHORT BUFRET	;NO, JUST CONTINUE NORMAL PAT
				H 
 04FD  8A 07                    	MOV	AL,BYTE PTR [BX]	;GET NUMBER OF STATEMENT 
 04FF  5B                       BUFCON:	POP	BX		;Get rid of the return address.
				 
 0500  BB 03E4 R                	MOV	BX,OFFSET RESLSX-1	;GET PTR TO START OF RE
				SERVED WORD LIST 
 0503  8A E8                    	MOV	CH,AL		;SAVE THIS CHAR IN [B] 
 0505  B1 40                    	MOV	CL,LOW OFFSET "A"-1	;INIT LEADING CHAR VAL
				UE 
 0507  FE C1                    RESSR3:	INC	CL		;BUMP LEADING CHAR VALUE. 
 0509  43                       RESSR1:	INC	BX		;BUMP POINTER INTO RESLST 
 050A  8A F7                    RESSRC:	MOV	DH,BH		;SAVE PTR TO START OF THIS R
				ESWRD 
 050C  8A D3                    	MOV	DL,BL 
 050E                           RESSR2: 
                                	INS86	56		;FETCH FROM CODE SEGMENT 
 050F  8A 07                    	MOV	AL,BYTE PTR [BX]	;GET CHAR FROM RESLST 
 0511  0A C0                    	OR	AL,AL		;SET CC'S 
 0513  74 F2                    	JZ	SHORT RESSR3	;IF END OF THIS CHARS TABLE, 
                                				;GO BACK & BUMP C 
 0515  9F                       	LAHF 
 0516  43                       	INC	BX		;BUMP SOURCE PTR 
 0517  9E                       	SAHF 
 0518  78 02                    	JS	SHORT ??L005 
Microsoft (R) Macro Assembler  Version 4.00                 7/13/20 11:13:55

IBMRES - IBM compatible reserved words / MLC                Page     1-29
LIST code for extended reserved words                       

 051A  EB F2                    	JMP	RESSR2		;IF NOT END OF THIS RESWRD, 
 051C                           ??L005: 
                                				;THEN KEEP LOOKING 
                                	INS86	56		;FETCH FROM CODE SEGMENT 
 051D  8A 07                    	MOV	AL,BYTE PTR [BX]	;GET PTR TO RESERVED WORD
				 VALUE 
 051F  3A C5                    	CMP	AL,CH		;SAME AS THE ONE WE SEARCH FOR? 
 0521  75 E6                    	JNZ	SHORT RESSR1	;NO, KEEP LOOKING. 
 0523  87 DA                    	XCHG	BX,DX		;SAVE FOUND PTR IN [H,L] 
 0525  8A C1                    	MOV	AL,CL		;GET LEADING CHAR 
 0527  5A                       	POP	DX		;RESTORE LINE CHAR COUNT 
 0528  59                       	POP	CX		;RESTORE DEPOSIT PTR 
 0529  8A D0                    	MOV	DL,AL		;SAVE LEADING CHAR IN [E] 
                                ; 
                                ; CODE BELOW NOT NEEDED SINCE NO SPECIAL REVERV
				ED WORDS IN HOOK TABLE 
                                ; 
                                ;       CPI     "Z"+1           ;WAS IT A SPECI
				AL CHAR? 
                                ;       JRNZ    NTSPCH          ;NON-SPECIAL CH
				AR 
                                ;       XRA     A               ;SET NON-SPECIA
				L 
                                ;       STA     TEMPA 
                                ;       JMPR    MORPUR          ;PRINT IT 
 052B  A0 0000 E                NTSPCH:	MOV	AL,BYTE PTR TEMPA	;WHAT DID WE DO L
				AST? 
 052E  0A C0                    	OR	AL,AL		;SPECIAL? 
 0530  B0 FF                    	MOV	AL,LOW 255	;FLAG IN RESERVED WORD 
 0532  A2 0000 E                	MOV	BYTE PTR TEMPA,AL	;CLEAR FLAG 
 0535  74 0D                    MORLNZ:	JZ	SHORT MORLN0	;GET CHAR AND PROCEED 
 0537  B0 20                    	MOV	AL,LOW " "	;PUT SPACE IN BUFFER 
 0539  8B F9                    	MOV	DI,CX 
 053B  AA                       	STOSB 
 053C  41                       	INC	CX 
 053D  FE CE                    	DEC	DH		;ANY SPACE LEFT IN BUFFER 
 053F  75 03                    	JNZ	SHORT ??L006 
 0541  E9 0000 E                	JMP	PPSWRT		;NO, RETURN 
 0544                           ??L006: 
 0544  8A C2                    MORLN0:	MOV	AL,DL 
 0546  EB 06                    	JMP	SHORT MORLN1	;CONTINUE 
 0548                           MORPUR: 
                                	INS86	56		;FETCH FROM CODE SEGMENT 
 0549  8A 07                    	MOV	AL,BYTE PTR [BX]	;GET BYTE FROM RESWRD 
 054B  43                       	INC	BX		;BUMP POINTER 
 054C  8A D0                    MORLNP:	MOV	DL,AL		;SAVE CHAR 
 054E  24 7F                    MORLN1:	AND	AL,LOW 177O	;AND OFF HIGH ORDER BIT
				 FOR DISK & EDIT 
 0550  8B F9                    	MOV	DI,CX 
 0552  AA                       	STOSB			;STORE THIS CHAR 
 0553  41                       	INC	CX		;BUMP PTR 
 0554  FE CE                    	DEC	DH		;BUMP DOWN REMAINING CHAR COUNT 
 0556  75 03                    	JNZ	SHORT ??L007 
 0558  E9 0000 E                	JMP	PPSWRT		;IF END OF LINE, JUST RETURN 
Microsoft (R) Macro Assembler  Version 4.00                 7/13/20 11:13:55

IBMRES - IBM compatible reserved words / MLC                Page     1-30
LIST code for extended reserved words                       

 055B                           ??L007: 
 055B  0A C2                    	OR	AL,DL		;SET CC'S 
 055D  78 02                    	JS	SHORT ??L008 
 055F  EB E7                    	JMP	MORPUR		;END OF RESWRD? 
 0561                           ??L008: 
 0561  5B                       	POP	BX		;RESTORE SOURCE PTR. 
 0562  43                       	INC	BX		;SKIP OVER RESERVED WORD 
 0563  E9 0000 E                	JMP	PLOOP2		;GET NEXT CHAR FROM LINE 
                                 
                                	SUBTTL  Extended Statement Dispatching 
                                 
 0566  E9 0000 E                SNERRS:	JMP	SNERR 
                                 
                                PUBLIC	NEWSTX 
 0569  3C 7D                    NEWSTX:	CMP	AL,LOW OFFSET 376O-201O	;CHECK FOR 
				NEW STATEMENT PREFIX 
 056B  74 27                    	JZ	SHORT GONE4	;IF SO, DISPATCH 
 056D  3C 7E                    	CMP	AL,LOW OFFSET 377O-201O	;FUNCTION? 
 056F  75 16                    	JNZ	SHORT GIIRET 
 0571  59                       	POP	CX		;Put return address into B. 
 0572  43                       	INC	BX 
 0573  8A 07                    	MOV	AL,BYTE PTR [BX] 
 0575  3C A0                    	CMP	AL,LOW OFFSET $PEN	; PEN as stmt? 
 0577  75 03                    	JNZ	SHORT ??L009 
 0579  EB 0D 90                 	JMP	PENV		; Brif so. 
 057C                           ??L009: 
 057C  3C A2                    	CMP	AL,LOW OFFSET $STRIG	;STRIG as stmt? 
 057E  75 03                    	JNZ	SHORT ??L010 
 0580  EB 0C 90                 	JMP	STRIGV		; Brif so. 
 0583                           ??L010: 
 0583  4B                       	DEC	BX 
 0584  B0 7E                    	MOV	AL,LOW OFFSET 377O-201O 
 0586  51                       	PUSH	CX		;Put the return address back on. 
 0587  C3                       GIIRET:	RET			;MID$ OR SYNTAX ERROR 
                                 
 0588  E8 0000 E                PENV:	CALL	CHRGTR 
 058B  E9 0000 E                	JMP	PENS 
 058E  E8 0000 E                STRIGV:	CALL	CHRGTR 
 0591  E9 0000 E                	JMP	STRIGS 
                                 
                                 
 0594  59                       GONE4:	POP	CX		;Get rid of the return address. 
 0595  43                       	INC	BX		;LOOK AT NEXT CHAR 
 0596  8A 07                    	MOV	AL,BYTE PTR [BX]	;FETCH IT 
 0598  2C 81                    	SUB	AL,LOW 201O	;GET RELATIVE POSITION IN STMD
				SX 
 059A  72 CA                    	JB	SHORT SNERRS	;IF TOO SMALL, SYNTAX ERROR 
 059C  02 C0                    	ADD	AL,AL		;TURN BYTE INTO OFFSET 
                                	INS86	62,344		;XOR AH,AH 
                                	INS86	213,360		;MOV SI,AX - GET OFFSET INTO [S
				I] 
                                	INS86	56		;CODE SEGMENT OVERRIDE 
                                	INS86	377,264,STMDSX	;PUSH STMDSP(SI) - PUSH A
				DDRESS 
Microsoft (R) Macro Assembler  Version 4.00                 7/13/20 11:13:55

IBMRES - IBM compatible reserved words / MLC                Page     1-31
Extended Statement Dispatching                              

 05A7  E9 0000 E                	JMP	CHRGTR		;START STATEMENT 
                                 
                                	SUBTTL  EVAL code for extended functions 
                                 
                                PUBLIC	EVALX 
 05AA  3C FE                    EVALX:	CMP	AL,LOW 376O 
 05AC  74 05                    	JZ	SHORT EVALNS	;Brif possible stmt as functio
				n 
 05AE  3C FD                    	CMP	AL,LOW 375O 
 05B0  74 18                    	JZ	SHORT EVALNF	;NEW FUNCTION IF 375 IN FRONT 
 05B2  C3                       	RET 
                                 
 05B3  43                       EVALNS:	INC	BX 
 05B4  8A 07                    	MOV	AL,BYTE PTR [BX] 
 05B6  3C 8D                    	CMP	AL,LOW OFFSET $DATE$ 
 05B8  74 08                    	JZ	SHORT DATEV	;Brif DATE$ 
 05BA  3C 8E                    	CMP	AL,LOW OFFSET $TIME$ 
 05BC  74 08                    	JZ	SHORT TIMEV	;Brif TIME$ 
 05BE  4B                       	DEC	BX 
 05BF  8A 07                    	MOV	AL,BYTE PTR [BX] 
 05C1  C3                       	RET 
                                 
 05C2  59                       DATEV:	POP	CX		;Get rid of the hook return addr
				ess. 
 05C3  E9 0000 E                	JMP	DATEF		;Do DATE function. 
                                 
 05C6  59                       TIMEV:	POP	CX		;Get rid of the hook return addr
				ess. 
 05C7  E9 0000 E                	JMP	TIMEF		;Do TIME$ function. 
                                 
 05CA  59                       EVALNF:	POP	CX		;Get rid of the return address.
				 
 05CB  43                       	INC	BX 
 05CC  8A 07                    	MOV	AL,BYTE PTR [BX] 
 05CE  2C 81                    	SUB	AL,LOW 201O 
 05D0  B5 00                    	MOV	CH,LOW 0 
 05D2  D0 C0                    	ROL	AL,1 
 05D4  8A C8                    	MOV	CL,AL 
 05D6  51                       	PUSH	CX 
 05D7  E8 0000 E                	CALL	CHRGTR 
 05DA  E8 0000 E                	CALL	PARCHK 
 05DD  5E                       	POP	SI		;XTHL 
 05DE  87 F3                    	XCHG	SI,BX 
 05E0  56                       	PUSH	SI 
 05E1  BA 0000 E                	MOV	DX,OFFSET LABBCK 
 05E4  52                       	PUSH	DX 
 05E5  B0 01                    	MOV	AL,LOW 1 
 05E7  A2 0000 E                	MOV	BYTE PTR FLGOVC,AL 
                                	INS86	213,363		;MOV SI,BX (GET FUNCTION OFFSET
				 IN SI) 
                                	INS86	56 
                                	INS86	377,264,FUNDSX 
 05F1  C3                       	RET 
                                 
Microsoft (R) Macro Assembler  Version 4.00                 7/13/20 11:13:55

IBMRES - IBM compatible reserved words / MLC                Page     1-32
EVAL code for extended functions                            

                                 
 05F2                           CSEG	ENDS 
                                	END 

Microsoft (R) Macro Assembler  Version 4.00                 7/13/20 11:13:55

IBMRES - IBM compatible reserved words / MLC                Symbols-1
                                                             

Macros:

		N a m e			Lines

ACRLF  . . . . . . . . . . . . .  	   2
ADR  . . . . . . . . . . . . . .  	   1
CALLOS . . . . . . . . . . . . .  	   1
CHRGET . . . . . . . . . . . . .  	   1
COMPAR . . . . . . . . . . . . .  	   2
DC . . . . . . . . . . . . . . .  	   6
DJNZ . . . . . . . . . . . . . .  	   2
FSIGN  . . . . . . . . . . . . .  	   1
GETYPE . . . . . . . . . . . . .  	   1
INS86  . . . . . . . . . . . . .  	  13
INST . . . . . . . . . . . . . .  	   1
LDDR . . . . . . . . . . . . . .  	   8
LDIR . . . . . . . . . . . . . .  	   8
MOVRI  . . . . . . . . . . . . .  	   6
OUTCHR . . . . . . . . . . . . .  	   1
POPR . . . . . . . . . . . . . .  	   2
PUSHM  . . . . . . . . . . . . .  	   5
PUSHR  . . . . . . . . . . . . .  	   2
Q  . . . . . . . . . . . . . . .  	  19
QF . . . . . . . . . . . . . . .  	  19
R  . . . . . . . . . . . . . . .  	   5
R2 . . . . . . . . . . . . . . .  	   5
SYNCHK . . . . . . . . . . . . .  	   2
T  . . . . . . . . . . . . . . .  	   3
UN_DEF . . . . . . . . . . . . .  	   1

Segments and Groups:

                N a m e         	Size	Align	Combine Class

CSEG . . . . . . . . . . . . . .  	05F2	PARA	PUBLIC	'CODESG'
DSEG . . . . . . . . . . . . . .  	0000	PARA	PUBLIC	'DATASG'

Symbols:            

                N a m e         	Type	Value	Attr         

ABSFN  . . . . . . . . . . . . .  	L NEAR	0000	CSEG	External
ALPTAB . . . . . . . . . . . . .  	L NEAR	00DE	CSEG	Global
ALPTAX . . . . . . . . . . . . .  	L NEAR	03B1	CSEG	Global
ALTAIR . . . . . . . . . . . . .  	Number	0000	
ANSI . . . . . . . . . . . . . .  	Number	0001	
ASC  . . . . . . . . . . . . . .  	L NEAR	0000	CSEG	External
ATAB . . . . . . . . . . . . . .  	L NEAR	0112	CSEG
ATABX  . . . . . . . . . . . . .  	L NEAR	03E5	CSEG
ATN  . . . . . . . . . . . . . .  	L NEAR	0000	CSEG	External
ATNTK  . . . . . . . . . . . . .  	Number	008E		Global
AUTO . . . . . . . . . . . . . .  	L NEAR	0000	CSEG	External

BASDEB . . . . . . . . . . . . .  	Number	0000	
Microsoft (R) Macro Assembler  Version 4.00                 7/13/20 11:13:55

IBMRES - IBM compatible reserved words / MLC                Symbols-2
                                                             

BEEPS  . . . . . . . . . . . . .  	L NEAR	0000	CSEG	External
BEEPSW . . . . . . . . . . . . .  	Number	0001	
BINCSW . . . . . . . . . . . . .  	Number	0000	
BLOAD  . . . . . . . . . . . . .  	L NEAR	0000	CSEG	External
BLODSW . . . . . . . . . . . . .  	Number	0001	
BOTCON . . . . . . . . . . . . .  	Number	000C		Global
BSAVE  . . . . . . . . . . . . .  	L NEAR	0000	CSEG	External
BTAB . . . . . . . . . . . . . .  	L NEAR	0123	CSEG
BTABX  . . . . . . . . . . . . .  	L NEAR	03E6	CSEG
BUFCON . . . . . . . . . . . . .  	L NEAR	04FF	CSEG
BUFLEN . . . . . . . . . . . . .  	Number	00FF	
BUFRET . . . . . . . . . . . . .  	L NEAR	04EE	CSEG

CALLS  . . . . . . . . . . . . .  	L NEAR	0000	CSEG	External
CALLSL . . . . . . . . . . . . .  	L NEAR	0000	CSEG	External
CASSW  . . . . . . . . . . . . .  	Number	0000	
CHAIN  . . . . . . . . . . . . .  	L NEAR	0000	CSEG	External
CHDIR  . . . . . . . . . . . . .  	L NEAR	0000	CSEG	External
CHR$ . . . . . . . . . . . . . .  	L NEAR	0000	CSEG	External
CHRGTR . . . . . . . . . . . . .  	L NEAR	0000	CSEG	External
CHSEAT . . . . . . . . . . . . .  	Number	0001	
CIRCLE . . . . . . . . . . . . .  	L NEAR	0000	CSEG	External
CLEAR  . . . . . . . . . . . . .  	L NEAR	0000	CSEG	External
CLINTK . . . . . . . . . . . . .  	Number	00DB		Global
CLMWID . . . . . . . . . . . . .  	Number	000E	
CLOSE  . . . . . . . . . . . . .  	L NEAR	0000	CSEG	External
CLS  . . . . . . . . . . . . . .  	L NEAR	0000	CSEG	External
CMPUTN . . . . . . . . . . . . .  	Number	0000	
COLOR  . . . . . . . . . . . . .  	L NEAR	0000	CSEG	External
COMMNT . . . . . . . . . . . . .  	Number	0000	
COMMON . . . . . . . . . . . . .  	L NEAR	0000	CSEG	External
COMS . . . . . . . . . . . . . .  	L NEAR	0000	CSEG	External
CONSSW . . . . . . . . . . . . .  	Number	0001	
CONT . . . . . . . . . . . . . .  	L NEAR	0000	CSEG	External
CONTO  . . . . . . . . . . . . .  	Number	000F	
CONTRO . . . . . . . . . . . . .  	Number	0001	
COS  . . . . . . . . . . . . . .  	L NEAR	0000	CSEG	External
CPM  . . . . . . . . . . . . . .  	Number	0001	
CPM110 . . . . . . . . . . . . .  	Number	0000	
CPM2 . . . . . . . . . . . . . .  	Number	0001	
CPM86  . . . . . . . . . . . . .  	Number	0000	
CPMA75 . . . . . . . . . . . . .  	Number	0000	
CPMADD . . . . . . . . . . . . .  	Number	0000	
CPMCON . . . . . . . . . . . . .  	Number	0000	
CPMLIF . . . . . . . . . . . . .  	Number	0000	
CPMMDS . . . . . . . . . . . . .  	Number	0000	
CPMPER . . . . . . . . . . . . .  	Number	0000	
CPMRSH . . . . . . . . . . . . .  	Number	0000	
CPMSBC . . . . . . . . . . . . .  	Number	0000	
CPMSER . . . . . . . . . . . . .  	Number	0000	
CRONLY . . . . . . . . . . . . .  	Number	0000	
CRUNCX . . . . . . . . . . . . .  	L NEAR	0479	CSEG	Global
CTAB . . . . . . . . . . . . . .  	L NEAR	0132	CSEG
CTABX  . . . . . . . . . . . . .  	L NEAR	03E7	CSEG
Microsoft (R) Macro Assembler  Version 4.00                 7/13/20 11:13:55

IBMRES - IBM compatible reserved words / MLC                Symbols-3
                                                             

CVD  . . . . . . . . . . . . . .  	L NEAR	0000	CSEG	External
CVI  . . . . . . . . . . . . . .  	L NEAR	0000	CSEG	External
CVS  . . . . . . . . . . . . . .  	L NEAR	0000	CSEG	External

DATAS  . . . . . . . . . . . . .  	L NEAR	0000	CSEG	External
DATEF  . . . . . . . . . . . . .  	L NEAR	0000	CSEG	External
DATES  . . . . . . . . . . . . .  	L NEAR	0000	CSEG	External
DATEV  . . . . . . . . . . . . .  	L NEAR	05C2	CSEG
DATPSC . . . . . . . . . . . . .  	Number	0080	
DBLCHR . . . . . . . . . . . . .  	Number	0000	
DBLTRN . . . . . . . . . . . . .  	Number	0000	
DEBUG  . . . . . . . . . . . . .  	Text  		
DEF  . . . . . . . . . . . . . .  	L NEAR	0000	CSEG	External
DEFDBL . . . . . . . . . . . . .  	L NEAR	0000	CSEG	External
DEFINT . . . . . . . . . . . . .  	L NEAR	0000	CSEG	External
DEFREA . . . . . . . . . . . . .  	L NEAR	0000	CSEG	External
DEFSTR . . . . . . . . . . . . .  	L NEAR	0000	CSEG	External
DELETE . . . . . . . . . . . . .  	L NEAR	0000	CSEG	External
DIM  . . . . . . . . . . . . . .  	L NEAR	0000	CSEG	External
DISK . . . . . . . . . . . . . .  	Number	0001	
DIVTK  . . . . . . . . . . . . .  	Number	00EC		Global
DMC  . . . . . . . . . . . . . .  	Number	0000	
DOS  . . . . . . . . . . . . . .  	Number	0000	
DRAW . . . . . . . . . . . . . .  	L NEAR	0000	CSEG	External
DRVPOS . . . . . . . . . . . . .  	Number	0000	
DTAB . . . . . . . . . . . . . .  	L NEAR	0166	CSEG
DTABX  . . . . . . . . . . . . .  	L NEAR	040A	CSEG
DUPONT . . . . . . . . . . . . .  	Number	0000	
DYNCOM . . . . . . . . . . . . .  	Number	0001	

EDIT . . . . . . . . . . . . . .  	L NEAR	0000	CSEG	External
EDIT80 . . . . . . . . . . . . .  	Number	0000	
ELSES  . . . . . . . . . . . . .  	L NEAR	0000	CSEG	External
ENDST  . . . . . . . . . . . . .  	L NEAR	0000	CSEG	External
ENVIRON  . . . . . . . . . . . .  	L NEAR	0000	CSEG	External
EOF  . . . . . . . . . . . . . .  	L NEAR	0000	CSEG	External
EQULTK . . . . . . . . . . . . .  	Number	00E7		Global
ERASE  . . . . . . . . . . . . .  	L NEAR	0000	CSEG	External
ERCTK  . . . . . . . . . . . . .  	Number	00D5		Global
ERDEV  . . . . . . . . . . . . .  	L NEAR	0000	CSEG	External
ERLTK  . . . . . . . . . . . . .  	Number	00D4		Global
ERRORS . . . . . . . . . . . . .  	L NEAR	0000	CSEG	External
ESCCTL . . . . . . . . . . . . .  	Number	0000	
ETAB . . . . . . . . . . . . . .  	L NEAR	018F	CSEG
ETABX  . . . . . . . . . . . . .  	L NEAR	0414	CSEG
EVALNF . . . . . . . . . . . . .  	L NEAR	05CA	CSEG
EVALNS . . . . . . . . . . . . .  	L NEAR	05B3	CSEG
EVALX  . . . . . . . . . . . . .  	L NEAR	05AA	CSEG	Global
EXIDY  . . . . . . . . . . . . .  	Number	0000	
EXP  . . . . . . . . . . . . . .  	L NEAR	0000	CSEG	External
EXPTK  . . . . . . . . . . . . .  	Number	00ED		Global

FAST . . . . . . . . . . . . . .  	Number	0001	
FIELD  . . . . . . . . . . . . .  	L NEAR	0000	CSEG	External
Microsoft (R) Macro Assembler  Version 4.00                 7/13/20 11:13:55

IBMRES - IBM compatible reserved words / MLC                Symbols-4
                                                             

FILES  . . . . . . . . . . . . .  	L NEAR	0000	CSEG	External
FIVDSK . . . . . . . . . . . . .  	Number	0001	
FIVEO  . . . . . . . . . . . . .  	Number	0001	
FIVLPT . . . . . . . . . . . . .  	Number	0001	
FIVMEM . . . . . . . . . . . . .  	Number	0001	
FIXER  . . . . . . . . . . . . .  	L NEAR	0000	CSEG	External
FKEYON . . . . . . . . . . . . .  	Number	0001	
FLGOVC . . . . . . . . . . . . .  	V WORD 	0000	DSEG	External
FNINP  . . . . . . . . . . . . .  	L NEAR	0000	CSEG	External
FNOUT  . . . . . . . . . . . . .  	L NEAR	0000	CSEG	External
FNTK . . . . . . . . . . . . . .  	Number	00D1		Global
FNWAIT . . . . . . . . . . . . .  	L NEAR	0000	CSEG	External
FOR  . . . . . . . . . . . . . .  	L NEAR	0000	CSEG	External
FRCDBL . . . . . . . . . . . . .  	L NEAR	0000	CSEG	External
FRCINT . . . . . . . . . . . . .  	L NEAR	0000	CSEG	External
FRCSNG . . . . . . . . . . . . .  	L NEAR	0000	CSEG	External
FRE  . . . . . . . . . . . . . .  	L NEAR	0000	CSEG	External
FTAB . . . . . . . . . . . . . .  	L NEAR	01B4	CSEG
FTABX  . . . . . . . . . . . . .  	L NEAR	0415	CSEG
FUNDSP . . . . . . . . . . . . .  	L NEAR	0094	CSEG	Global
FUNDSX . . . . . . . . . . . . .  	L NEAR	039D	CSEG

GENBIN . . . . . . . . . . . . .  	Number	0001	
GENDSK . . . . . . . . . . . . .  	Number	0000	
GENIO  . . . . . . . . . . . . .  	Number	0001	
GESBC  . . . . . . . . . . . . .  	Number	0000	
GET  . . . . . . . . . . . . . .  	L NEAR	0000	CSEG	External
GIIRET . . . . . . . . . . . . .  	L NEAR	0587	CSEG
GIO86  . . . . . . . . . . . . .  	Number	0001	
GONE4  . . . . . . . . . . . . .  	L NEAR	0594	CSEG
GOSUB  . . . . . . . . . . . . .  	L NEAR	0000	CSEG	External
GOTO . . . . . . . . . . . . . .  	L NEAR	0000	CSEG	External
GREATK . . . . . . . . . . . . .  	Number	00E6		Global
GTAB . . . . . . . . . . . . . .  	L NEAR	01C0	CSEG
GTABX  . . . . . . . . . . . . .  	L NEAR	0420	CSEG
GW . . . . . . . . . . . . . . .  	Number	0001	
GWCASS . . . . . . . . . . . . .  	Number	0000	
GWDBUG . . . . . . . . . . . . .  	Number	0000	
GWLEV2 . . . . . . . . . . . . .  	Number	0000	

HEATH  . . . . . . . . . . . . .  	Number	0000	
HEXOCT . . . . . . . . . . . . .  	Number	0001	
HGHBIT . . . . . . . . . . . . .  	Number	0001	
HTAB . . . . . . . . . . . . . .  	L NEAR	01CF	CSEG
HTABX  . . . . . . . . . . . . .  	L NEAR	0424	CSEG

I8086  . . . . . . . . . . . . .  	Number	0001	
I8251  . . . . . . . . . . . . .  	Number	0000	
IBMLIK . . . . . . . . . . . . .  	Number	0001	
IBMTOK . . . . . . . . . . . . .  	Number	0001	
IDIVTK . . . . . . . . . . . . .  	Number	00F4		Global
IFS  . . . . . . . . . . . . . .  	L NEAR	0000	CSEG	External
INKEYF . . . . . . . . . . . . .  	Number	0001	
INLADD . . . . . . . . . . . . .  	Number	0000	
Microsoft (R) Macro Assembler  Version 4.00                 7/13/20 11:13:55

IBMRES - IBM compatible reserved words / MLC                Symbols-5
                                                             

INPUT  . . . . . . . . . . . . .  	L NEAR	0000	CSEG	External
INSRTK . . . . . . . . . . . . .  	Number	00D8		Global
INSTSW . . . . . . . . . . . . .  	Number	0000	
INTEL  . . . . . . . . . . . . .  	Number	0000	
INTFHW . . . . . . . . . . . . .  	Number	0000	
INTFSW . . . . . . . . . . . . .  	Number	0000	
INTLEC . . . . . . . . . . . . .  	Number	0000	
INTROM . . . . . . . . . . . . .  	Number	0000	
IOCTL  . . . . . . . . . . . . .  	L NEAR	0000	CSEG	External
ISC  . . . . . . . . . . . . . .  	Number	0000	
ISIS . . . . . . . . . . . . . .  	Number	0000	
ISVARS . . . . . . . . . . . . .  	L NEAR	04BF	CSEG
ITAB . . . . . . . . . . . . . .  	L NEAR	01D4	CSEG
ITABX  . . . . . . . . . . . . .  	L NEAR	0425	CSEG

JISFN  . . . . . . . . . . . . .  	L NEAR	0000	CSEG	External
JISKTN . . . . . . . . . . . . .  	Number	0000	
JTAB . . . . . . . . . . . . . .  	L NEAR	01F0	CSEG
JTABX  . . . . . . . . . . . . .  	L NEAR	042B	CSEG

KANABS . . . . . . . . . . . . .  	Number	0000	
KANJFN . . . . . . . . . . . . .  	Number	0000	
KEYS . . . . . . . . . . . . . .  	L NEAR	0000	CSEG	External
KEYSTA . . . . . . . . . . . . .  	Number	0000	
KILL . . . . . . . . . . . . . .  	L NEAR	0000	CSEG	External
KILLER . . . . . . . . . . . . .  	Number	0000	
KLENFN . . . . . . . . . . . . .  	L NEAR	0000	CSEG	External
KPOSFN . . . . . . . . . . . . .  	L NEAR	0000	CSEG	External
KTAB . . . . . . . . . . . . . .  	L NEAR	01F1	CSEG
KTABX  . . . . . . . . . . . . .  	L NEAR	042C	CSEG
KTNFN  . . . . . . . . . . . . .  	L NEAR	0000	CSEG	External

LABBCK . . . . . . . . . . . . .  	L NEAR	0000	CSEG	External
LABKEY . . . . . . . . . . . . .  	Number	0001	
LASNUM . . . . . . . . . . . . .  	Number	009B		Global
LCOPYS . . . . . . . . . . . . .  	L NEAR	0000	CSEG	External
LEFT$  . . . . . . . . . . . . .  	L NEAR	0000	CSEG	External
LEN  . . . . . . . . . . . . . .  	L NEAR	0000	CSEG	External
LEN2 . . . . . . . . . . . . . .  	Number	0001	
LEN3 . . . . . . . . . . . . . .  	Number	0001	
LENGTH . . . . . . . . . . . . .  	Number	0002	
LESSTK . . . . . . . . . . . . .  	Number	00E8		Global
LET  . . . . . . . . . . . . . .  	L NEAR	0000	CSEG	External
LINE . . . . . . . . . . . . . .  	L NEAR	0000	CSEG	External
LINLN  . . . . . . . . . . . . .  	Number	0050	
LIST . . . . . . . . . . . . . .  	L NEAR	0000	CSEG	External
LISTEN . . . . . . . . . . . . .  	Number	0001	
LISTX  . . . . . . . . . . . . .  	L NEAR	04F5	CSEG	Global
LLIST  . . . . . . . . . . . . .  	L NEAR	0000	CSEG	External
LNGVAR . . . . . . . . . . . . .  	Number	0001	
LOAD . . . . . . . . . . . . . .  	L NEAR	0000	CSEG	External
LOC  . . . . . . . . . . . . . .  	L NEAR	0000	CSEG	External
LOCATE . . . . . . . . . . . . .  	L NEAR	0000	CSEG	External
LOF  . . . . . . . . . . . . . .  	L NEAR	0000	CSEG	External
Microsoft (R) Macro Assembler  Version 4.00                 7/13/20 11:13:55

IBMRES - IBM compatible reserved words / MLC                Symbols-6
                                                             

LOG  . . . . . . . . . . . . . .  	L NEAR	0000	CSEG	External
LOKHED . . . . . . . . . . . . .  	Number	0000	
LONGI  . . . . . . . . . . . . .  	Number	0000	
LOPPSI . . . . . . . . . . . . .  	L NEAR	0491	CSEG
LOPSK2 . . . . . . . . . . . . .  	L NEAR	04E0	CSEG
LOPSKP . . . . . . . . . . . . .  	L NEAR	04DF	CSEG
LPOS . . . . . . . . . . . . . .  	L NEAR	0000	CSEG	External
LPRINT . . . . . . . . . . . . .  	L NEAR	0000	CSEG	External
LPT3 . . . . . . . . . . . . . .  	Number	0000	
LPTLEN . . . . . . . . . . . . .  	Number	0084	
LPTSW  . . . . . . . . . . . . .  	Number	0001	
LSET . . . . . . . . . . . . . .  	L NEAR	0000	CSEG	External
LSTOPK . . . . . . . . . . . . .  	Number	000C		Global
LTAB . . . . . . . . . . . . . .  	L NEAR	01F5	CSEG
LTABX  . . . . . . . . . . . . .  	L NEAR	0431	CSEG

MAKUPL . . . . . . . . . . . . .  	L NEAR	0000	CSEG	External
MDS  . . . . . . . . . . . . . .  	Number	0000	
MDSISS . . . . . . . . . . . . .  	Number	0000	
MEMIMG . . . . . . . . . . . . .  	Number	0001	
MERGE  . . . . . . . . . . . . .  	L NEAR	0000	CSEG	External
MID$ . . . . . . . . . . . . . .  	L NEAR	0000	CSEG	External
MIDTK  . . . . . . . . . . . . .  	Number	0083		Global
MINUTK . . . . . . . . . . . . .  	Number	00EA		Global
MKD$ . . . . . . . . . . . . . .  	L NEAR	0000	CSEG	External
MKDIR  . . . . . . . . . . . . .  	L NEAR	0000	CSEG	External
MKI$ . . . . . . . . . . . . . .  	L NEAR	0000	CSEG	External
MKS$ . . . . . . . . . . . . . .  	L NEAR	0000	CSEG	External
MORLN0 . . . . . . . . . . . . .  	L NEAR	0544	CSEG
MORLN1 . . . . . . . . . . . . .  	L NEAR	054E	CSEG
MORLNP . . . . . . . . . . . . .  	L NEAR	054C	CSEG
MORLNZ . . . . . . . . . . . . .  	L NEAR	0535	CSEG
MORPUR . . . . . . . . . . . . .  	L NEAR	0548	CSEG
MOSTEK . . . . . . . . . . . . .  	Number	0000	
MOTOR  . . . . . . . . . . . . .  	L NEAR	0000	CSEG	External
MTAB . . . . . . . . . . . . . .  	L NEAR	022B	CSEG
MTABX  . . . . . . . . . . . . .  	L NEAR	043B	CSEG
MULSEG . . . . . . . . . . . . .  	Number	0001	
MULTK  . . . . . . . . . . . . .  	Number	00EB		Global

NAME . . . . . . . . . . . . . .  	L NEAR	0000	CSEG	External
NAMLEN . . . . . . . . . . . . .  	Number	0028	
NASCOM . . . . . . . . . . . . .  	Number	0000	
NATROM . . . . . . . . . . . . .  	Number	0000	
NBANKS . . . . . . . . . . . . .  	Number	0001	
NCRBAS . . . . . . . . . . . . .  	Number	0000	
NCRCAS . . . . . . . . . . . . .  	Number	0000	
NCRDEB . . . . . . . . . . . . .  	Number	0000	
NCRELS . . . . . . . . . . . . .  	Number	0000	
NCRLPT . . . . . . . . . . . . .  	Number	0001	
NECBAS . . . . . . . . . . . . .  	Number	0000	
NEWFUN . . . . . . . . . . . . .  	L NEAR	04EF	CSEG
NEWSTX . . . . . . . . . . . . .  	L NEAR	0569	CSEG	Global
NEXT . . . . . . . . . . . . . .  	L NEAR	0000	CSEG	External
Microsoft (R) Macro Assembler  Version 4.00                 7/13/20 11:13:55

IBMRES - IBM compatible reserved words / MLC                Symbols-7
                                                             

NMCOMT . . . . . . . . . . . . .  	Number	0002	
NMKEYF . . . . . . . . . . . . .  	Number	000A	
NMKEYT . . . . . . . . . . . . .  	Number	000E	
NMLINE . . . . . . . . . . . . .  	Number	0019	
NMLPT  . . . . . . . . . . . . .  	Number	0003	
NMPENT . . . . . . . . . . . . .  	Number	0001	
NMREL  . . . . . . . . . . . . .  	Number	0003		Global
NMSTRT . . . . . . . . . . . . .  	Number	0004	
NOATDL . . . . . . . . . . . . .  	Number	0000	
NOCTLA . . . . . . . . . . . . .  	Number	0000	
NODOT  . . . . . . . . . . . . .  	Number	0000	
NOEDIT . . . . . . . . . . . . .  	Number	0000	
NOIOS  . . . . . . . . . . . . .  	Number	0000	
NONULL . . . . . . . . . . . . .  	Number	0000	
NOPEKS . . . . . . . . . . . . .  	Number	0000	
NOROMP . . . . . . . . . . . . .  	Number	0000	
NORUBT . . . . . . . . . . . . .  	Number	0000	
NOTFNT . . . . . . . . . . . . .  	L NEAR	04D7	CSEG
NOTRFN . . . . . . . . . . . . .  	L NEAR	0000	CSEG	External
NOTTK  . . . . . . . . . . . . .  	Number	00D3		Global
NOUSR  . . . . . . . . . . . . .  	Number	0000	
NOVARP . . . . . . . . . . . . .  	Number	0000	
NTAB . . . . . . . . . . . . . .  	L NEAR	023D	CSEG
NTABX  . . . . . . . . . . . . .  	L NEAR	0448	CSEG
NTSPCH . . . . . . . . . . . . .  	L NEAR	052B	CSEG
NUMCMD . . . . . . . . . . . . .  	Number	004A		Global
NUMGFN . . . . . . . . . . . . .  	Number	0005		Global
NUMLEV . . . . . . . . . . . . .  	Number	006E	
NUMTMP . . . . . . . . . . . . .  	Number	000A	
NUMTRP . . . . . . . . . . . . .  	Number	0015	

OEMRAM . . . . . . . . . . . . .  	Number	0000	
ONEFUN . . . . . . . . . . . . .  	Number	0081		Global
ONGOTO . . . . . . . . . . . . .  	L NEAR	0000	CSEG	External
ONTEL  . . . . . . . . . . . . .  	Number	0000	
OPEN . . . . . . . . . . . . . .  	L NEAR	0000	CSEG	External
OPTION . . . . . . . . . . . . .  	L NEAR	0000	CSEG	External
OTAB . . . . . . . . . . . . . .  	L NEAR	0248	CSEG
OTABX  . . . . . . . . . . . . .  	L NEAR	044D	CSEG

PAINT  . . . . . . . . . . . . .  	L NEAR	0000	CSEG	External
PALETE . . . . . . . . . . . . .  	L NEAR	0000	CSEG	External
PALSIZ . . . . . . . . . . . . .  	Number	0000	
PANBAS . . . . . . . . . . . . .  	Number	0000	
PARCHK . . . . . . . . . . . . .  	L NEAR	0000	CSEG	External
PCS  . . . . . . . . . . . . . .  	Number	0000	
PEEK . . . . . . . . . . . . . .  	L NEAR	0000	CSEG	External
PENF . . . . . . . . . . . . . .  	L NEAR	0000	CSEG	External
PENS . . . . . . . . . . . . . .  	L NEAR	0000	CSEG	External
PENV . . . . . . . . . . . . . .  	L NEAR	0588	CSEG
PLAYS  . . . . . . . . . . . . .  	L NEAR	0000	CSEG	External
PLAYSW . . . . . . . . . . . . .  	Number	0001	
PLOOP2 . . . . . . . . . . . . .  	L NEAR	0000	CSEG	External
PLUSTK . . . . . . . . . . . . .  	Number	00E9		Global
Microsoft (R) Macro Assembler  Version 4.00                 7/13/20 11:13:55

IBMRES - IBM compatible reserved words / MLC                Symbols-8
                                                             

PMAP . . . . . . . . . . . . . .  	L NEAR	0000	CSEG	External
POKE . . . . . . . . . . . . . .  	L NEAR	0000	CSEG	External
POS  . . . . . . . . . . . . . .  	L NEAR	0000	CSEG	External
PPSWRT . . . . . . . . . . . . .  	L NEAR	0000	CSEG	External
PRESET . . . . . . . . . . . . .  	L NEAR	0000	CSEG	External
PRINT  . . . . . . . . . . . . .  	L NEAR	0000	CSEG	External
PSET . . . . . . . . . . . . . .  	L NEAR	0000	CSEG	External
PTAB . . . . . . . . . . . . . .  	L NEAR	0261	CSEG
PTABX  . . . . . . . . . . . . .  	L NEAR	044E	CSEG
PURE . . . . . . . . . . . . . .  	Number	0001	
PUT  . . . . . . . . . . . . . .  	L NEAR	0000	CSEG	External

QQ . . . . . . . . . . . . . . .  	Number	008A	
QTAB . . . . . . . . . . . . . .  	L NEAR	0284	CSEG
QTABX  . . . . . . . . . . . . .  	L NEAR	045B	CSEG
QUEUE  . . . . . . . . . . . . .  	Number	0001	

RANDOM . . . . . . . . . . . . .  	L NEAR	0000	CSEG	External
READ . . . . . . . . . . . . . .  	L NEAR	0000	CSEG	External
REALIO . . . . . . . . . . . . .  	Number	0001	
REM  . . . . . . . . . . . . . .  	L NEAR	0000	CSEG	External
RENCRN . . . . . . . . . . . . .  	L NEAR	0000	CSEG	External
RESEQ  . . . . . . . . . . . . .  	L NEAR	0000	CSEG	External
RESET  . . . . . . . . . . . . .  	L NEAR	0000	CSEG	External
RESLST . . . . . . . . . . . . .  	L NEAR	0112	CSEG	Global
RESLSX . . . . . . . . . . . . .  	L NEAR	03E5	CSEG
RESSR1 . . . . . . . . . . . . .  	L NEAR	0509	CSEG
RESSR2 . . . . . . . . . . . . .  	L NEAR	050E	CSEG
RESSR3 . . . . . . . . . . . . .  	L NEAR	0507	CSEG
RESSRC . . . . . . . . . . . . .  	L NEAR	050A	CSEG
RESTORE  . . . . . . . . . . . .  	L NEAR	0000	CSEG	External
RESUME . . . . . . . . . . . . .  	L NEAR	0000	CSEG	External
RETURN . . . . . . . . . . . . .  	L NEAR	0000	CSEG	External
RIGHT$ . . . . . . . . . . . . .  	L NEAR	0000	CSEG	External
RMDIR  . . . . . . . . . . . . .  	L NEAR	0000	CSEG	External
RMX  . . . . . . . . . . . . . .  	Number	0000	
RND  . . . . . . . . . . . . . .  	L NEAR	0000	CSEG	External
RSET . . . . . . . . . . . . . .  	L NEAR	0000	CSEG	External
RSHACK . . . . . . . . . . . . .  	Number	0000	
RSTLES . . . . . . . . . . . . .  	Number	0001	
RTAB . . . . . . . . . . . . . .  	L NEAR	0285	CSEG
RTABX  . . . . . . . . . . . . .  	L NEAR	045C	CSEG
RUN  . . . . . . . . . . . . . .  	L NEAR	0000	CSEG	External

SAVE . . . . . . . . . . . . . .  	L NEAR	0000	CSEG	External
SBC  . . . . . . . . . . . . . .  	Number	0000	
SBC86  . . . . . . . . . . . . .  	Number	0000	
SCP  . . . . . . . . . . . . . .  	Number	0001	
SCRATH . . . . . . . . . . . . .  	L NEAR	0000	CSEG	External
SCREEN . . . . . . . . . . . . .  	L NEAR	0000	CSEG	External
SCRN86 . . . . . . . . . . . . .  	Number	0001	
SCRNIO . . . . . . . . . . . . .  	Number	0001	
SCROLT . . . . . . . . . . . . .  	Number	0001	
SGN  . . . . . . . . . . . . . .  	L NEAR	0000	CSEG	External
Microsoft (R) Macro Assembler  Version 4.00                 7/13/20 11:13:55

IBMRES - IBM compatible reserved words / MLC                Symbols-9
                                                             

SGSATS . . . . . . . . . . . . .  	Number	0000	
SHELL  . . . . . . . . . . . . .  	L NEAR	0000	CSEG	External
SHORTJ . . . . . . . . . . . . .  	Number	0001	
SHTCHN . . . . . . . . . . . . .  	Number	0000	
SHTERR . . . . . . . . . . . . .  	Number	0000	
SHTINS . . . . . . . . . . . . .  	Number	0000	
SHTLHM . . . . . . . . . . . . .  	Number	0000	
SHTLIN . . . . . . . . . . . . .  	Number	0000	
SHTPRO . . . . . . . . . . . . .  	Number	0000	
SHTREN . . . . . . . . . . . . .  	Number	0000	
SIN  . . . . . . . . . . . . . .  	L NEAR	0000	CSEG	External
SIXDIG . . . . . . . . . . . . .  	Number	0000	
SMALL  . . . . . . . . . . . . .  	Number	0000	
SNERR  . . . . . . . . . . . . .  	L NEAR	0000	CSEG	External
SNERRS . . . . . . . . . . . . .  	L NEAR	0566	CSEG
SNGQTK . . . . . . . . . . . . .  	Number	00D9		Global
SOUNDS . . . . . . . . . . . . .  	L NEAR	0000	CSEG	External
SPACE$ . . . . . . . . . . . . .  	L NEAR	0000	CSEG	External
SPCDSK . . . . . . . . . . . . .  	Number	0000	
SPCNDS . . . . . . . . . . . . .  	Number	0000	
SPCTAB . . . . . . . . . . . . .  	L NEAR	0346	CSEG	Global
SPCTK  . . . . . . . . . . . . .  	Number	00D2		Global
SQR  . . . . . . . . . . . . . .  	L NEAR	0000	CSEG	External
SQRTK  . . . . . . . . . . . . .  	Number	0087		Global
STAB . . . . . . . . . . . . . .  	L NEAR	02BA	CSEG
STABX  . . . . . . . . . . . . .  	L NEAR	0466	CSEG
STEPTK . . . . . . . . . . . . .  	Number	00CF		Global
STICKF . . . . . . . . . . . . .  	L NEAR	0000	CSEG	External
STMDSP . . . . . . . . . . . . .  	L NEAR	0000	CSEG	Global
STMDSX . . . . . . . . . . . . .  	L NEAR	035B	CSEG
STOP . . . . . . . . . . . . . .  	L NEAR	0000	CSEG	External
STR$ . . . . . . . . . . . . . .  	L NEAR	0000	CSEG	External
STRH$  . . . . . . . . . . . . .  	L NEAR	0000	CSEG	External
STRIGF . . . . . . . . . . . . .  	L NEAR	0000	CSEG	External
STRIGS . . . . . . . . . . . . .  	L NEAR	0000	CSEG	External
STRIGV . . . . . . . . . . . . .  	L NEAR	058E	CSEG
STRING . . . . . . . . . . . . .  	Number	0001	
STRO$  . . . . . . . . . . . . .  	L NEAR	0000	CSEG	External
STRSIZ . . . . . . . . . . . . .  	Number	0003	
SUPRSH . . . . . . . . . . . . .  	Number	0001	
SWAP . . . . . . . . . . . . . .  	L NEAR	0000	CSEG	External
SWAPSW . . . . . . . . . . . . .  	Number	0001	
SYSTEM . . . . . . . . . . . . .  	L NEAR	0000	CSEG	External

TABTK  . . . . . . . . . . . . .  	Number	00CE		Global
TAN  . . . . . . . . . . . . . .  	L NEAR	0000	CSEG	External
TEK  . . . . . . . . . . . . . .  	Number	0000	
TEMPA  . . . . . . . . . . . . .  	V WORD 	0000	DSEG	External
THENTK . . . . . . . . . . . . .  	Number	00CD		Global
TIMEF  . . . . . . . . . . . . .  	L NEAR	0000	CSEG	External
TIMER  . . . . . . . . . . . . .  	L NEAR	0000	CSEG	External
TIMES  . . . . . . . . . . . . .  	L NEAR	0000	CSEG	External
TIMEV  . . . . . . . . . . . . .  	L NEAR	05C6	CSEG
TIMSHR . . . . . . . . . . . . .  	Number	0000	
Microsoft (R) Macro Assembler  Version 4.00                 7/13/20 11:13:55

IBMRES - IBM compatible reserved words / MLC                Symbols-10
                                                             

TOFF . . . . . . . . . . . . . .  	L NEAR	0000	CSEG	External
TON  . . . . . . . . . . . . . .  	L NEAR	0000	CSEG	External
TOPCON . . . . . . . . . . . . .  	Number	001B		Global
TRNCHR . . . . . . . . . . . . .  	Number	0000	
TRSER2 . . . . . . . . . . . . .  	Number	0000	
TRUANS . . . . . . . . . . . . .  	Number	0000	
TRUROM . . . . . . . . . . . . .  	Number	0001	
TRYAGA . . . . . . . . . . . . .  	L NEAR	0490	CSEG
TSDISK . . . . . . . . . . . . .  	Number	0000	
TSLPT  . . . . . . . . . . . . .  	Number	0000	
TSTANM . . . . . . . . . . . . .  	L NEAR	0000	CSEG	External
TTAB . . . . . . . . . . . . . .  	L NEAR	02FE	CSEG
TTABX  . . . . . . . . . . . . .  	L NEAR	046D	CSEG

USINTK . . . . . . . . . . . . .  	Number	00D7		Global
USRTK  . . . . . . . . . . . . .  	Number	00D0		Global
UTAB . . . . . . . . . . . . . .  	L NEAR	0315	CSEG
UTABX  . . . . . . . . . . . . .  	L NEAR	0473	CSEG

VAL  . . . . . . . . . . . . . .  	L NEAR	0000	CSEG	External
VIEW . . . . . . . . . . . . . .  	L NEAR	0000	CSEG	External
VINT . . . . . . . . . . . . . .  	L NEAR	0000	CSEG	External
VTAB . . . . . . . . . . . . . .  	L NEAR	031E	CSEG
VTABX  . . . . . . . . . . . . .  	L NEAR	0474	CSEG

WEND . . . . . . . . . . . . . .  	L NEAR	0000	CSEG	External
WHILE  . . . . . . . . . . . . .  	L NEAR	0000	CSEG	External
WIDTHS . . . . . . . . . . . . .  	L NEAR	0000	CSEG	External
WINDOW . . . . . . . . . . . . .  	L NEAR	0000	CSEG	External
WRITE  . . . . . . . . . . . . .  	L NEAR	0000	CSEG	External
WTAB . . . . . . . . . . . . . .  	L NEAR	0328	CSEG
WTABX  . . . . . . . . . . . . .  	L NEAR	0475	CSEG

XTAB . . . . . . . . . . . . . .  	L NEAR	0340	CSEG
XTABX  . . . . . . . . . . . . .  	L NEAR	0476	CSEG
XTNSYS . . . . . . . . . . . . .  	Number	0000	

YTAB . . . . . . . . . . . . . .  	L NEAR	0344	CSEG
YTABX  . . . . . . . . . . . . .  	L NEAR	0477	CSEG

Z80  . . . . . . . . . . . . . .  	Number	0001	
Z80MAC . . . . . . . . . . . . .  	Number	0001	
ZTAB . . . . . . . . . . . . . .  	L NEAR	0345	CSEG
ZTABX  . . . . . . . . . . . . .  	L NEAR	0478	CSEG

$ABS . . . . . . . . . . . . . .  	Number	0086		Global
$AND . . . . . . . . . . . . . .  	Number	00EE		Global
$ASC . . . . . . . . . . . . . .  	Number	0095		Global
$ATN . . . . . . . . . . . . . .  	Number	008E		Global
$AUTO  . . . . . . . . . . . . .  	Number	00AA		Global
$BEEP  . . . . . . . . . . . . .  	Number	00C5		Global
$BLOAD . . . . . . . . . . . . .  	Number	00C3		Global
$BSAVE . . . . . . . . . . . . .  	Number	00C2		Global
$CALL  . . . . . . . . . . . . .  	Number	00B3		Global
Microsoft (R) Macro Assembler  Version 4.00                 7/13/20 11:13:55

IBMRES - IBM compatible reserved words / MLC                Symbols-11
                                                             

$CALLS . . . . . . . . . . . . .  	Number	00A1		Global
$CDBL  . . . . . . . . . . . . .  	Number	009E		Global
$CDBLF . . . . . . . . . . . . .  	Number	001D		Global
$CHAIN . . . . . . . . . . . . .  	Number	008C		Global
$CHDIR . . . . . . . . . . . . .  	Number	0097		Global
$CHR$  . . . . . . . . . . . . .  	Number	0096		Global
$CHRFN . . . . . . . . . . . . .  	Number	0015		Global
$CINT  . . . . . . . . . . . . .  	Number	009C		Global
$CIRCLE  . . . . . . . . . . . .  	Number	0091		Global
$CLEAR . . . . . . . . . . . . .  	Number	0092		Global
$CLOSE . . . . . . . . . . . . .  	Number	00BB		Global
$CLS . . . . . . . . . . . . . .  	Number	00C0		Global
$COLOR . . . . . . . . . . . . .  	Number	00BF		Global
$COM . . . . . . . . . . . . . .  	Number	0090		Global
$COM2B . . . . . . . . . . . . .  	Number	FE90		Global
$COMMON  . . . . . . . . . . . .  	Number	008B		Global
$CONT  . . . . . . . . . . . . .  	Number	0099		Global
$COS . . . . . . . . . . . . . .  	Number	008C		Global
$CSNG  . . . . . . . . . . . . .  	Number	009D		Global
$CSNGF . . . . . . . . . . . . .  	Number	001C		Global
$CSRLIN  . . . . . . . . . . . .  	Number	00DB		Global
$CVD . . . . . . . . . . . . . .  	Number	0083		Global
$CVI . . . . . . . . . . . . . .  	Number	0081		Global
$CVS . . . . . . . . . . . . . .  	Number	0082		Global
$DATA  . . . . . . . . . . . . .  	Number	0084		Global
$DATCO . . . . . . . . . . . . .  	Number	004A		Global
$DATE$ . . . . . . . . . . . . .  	Number	008D		Global
$DEF . . . . . . . . . . . . . .  	Number	0097		Global
$DEFDBL  . . . . . . . . . . . .  	Number	00AF		Global
$DEFINT  . . . . . . . . . . . .  	Number	00AD		Global
$DEFSNG  . . . . . . . . . . . .  	Number	00AE		Global
$DEFSTR  . . . . . . . . . . . .  	Number	00AC		Global
$DELETE  . . . . . . . . . . . .  	Number	00A9		Global
$DIM . . . . . . . . . . . . . .  	Number	0086		Global
$DRAW  . . . . . . . . . . . . .  	Number	0092		Global
$DUMMY . . . . . . . . . . . . .  	Number	009F		Global
$EDIT  . . . . . . . . . . . . .  	Number	00A6		Global
$ELSE  . . . . . . . . . . . . .  	Number	00A1		Global
$END . . . . . . . . . . . . . .  	Number	0081		Global
$ENVIRON . . . . . . . . . . . .  	Number	009B		Global
$EOF . . . . . . . . . . . . . .  	Number	00A3		Global
$EQV . . . . . . . . . . . . . .  	Number	00F1		Global
$ERASE . . . . . . . . . . . . .  	Number	00A5		Global
$ERDEV . . . . . . . . . . . . .  	Number	0095		Global
$ERL . . . . . . . . . . . . . .  	Number	00D4		Global
$ERR . . . . . . . . . . . . . .  	Number	00D5		Global
$ERROR . . . . . . . . . . . . .  	Number	00A7		Global
$EXP . . . . . . . . . . . . . .  	Number	008B		Global
$F . . . . . . . . . . . . . . .  	Number	0005	
$FIELD . . . . . . . . . . . . .  	Number	0082		Global
$FILES . . . . . . . . . . . . .  	Number	0081		Global
$FIX . . . . . . . . . . . . . .  	Number	009F		Global
$FN  . . . . . . . . . . . . . .  	Number	00D1		Global
$FOR . . . . . . . . . . . . . .  	Number	0082		Global
Microsoft (R) Macro Assembler  Version 4.00                 7/13/20 11:13:55

IBMRES - IBM compatible reserved words / MLC                Symbols-12
                                                             

$FRE . . . . . . . . . . . . . .  	Number	008F		Global
$GET . . . . . . . . . . . . . .  	Number	0089		Global
$GOSUB . . . . . . . . . . . . .  	Number	008D		Global
$GOTO  . . . . . . . . . . . . .  	Number	0089		Global
$HEX$  . . . . . . . . . . . . .  	Number	009A		Global
$IF  . . . . . . . . . . . . . .  	Number	008B		Global
$IMP . . . . . . . . . . . . . .  	Number	00F2		Global
$INKEY$  . . . . . . . . . . . .  	Number	00DE		Global
$INP . . . . . . . . . . . . . .  	Number	0090		Global
$INPUT . . . . . . . . . . . . .  	Number	0085		Global
$INSTR . . . . . . . . . . . . .  	Number	00D8		Global
$INT . . . . . . . . . . . . . .  	Number	0085		Global
$IOCTL . . . . . . . . . . . . .  	Number	0096		Global
$JIS . . . . . . . . . . . . . .  	Number	0088		Global
$KEY . . . . . . . . . . . . . .  	Number	00C9		Global
$KEY2B . . . . . . . . . . . . .  	Number	00C9		Global
$KILL  . . . . . . . . . . . . .  	Number	0087		Global
$KLEN  . . . . . . . . . . . . .  	Number	008A		Global
$KPOS  . . . . . . . . . . . . .  	Number	0089		Global
$KTN . . . . . . . . . . . . . .  	Number	0087		Global
$LCOPY . . . . . . . . . . . . .  	Number	00A0		Global
$LEFT$ . . . . . . . . . . . . .  	Number	0081		Global
$LEN . . . . . . . . . . . . . .  	Number	0092		Global
$LET . . . . . . . . . . . . . .  	Number	0088		Global
$LINE  . . . . . . . . . . . . .  	Number	00B0		Global
$LIST  . . . . . . . . . . . . .  	Number	0093		Global
$LLIST . . . . . . . . . . . . .  	Number	009E		Global
$LOAD  . . . . . . . . . . . . .  	Number	00BC		Global
$LOC . . . . . . . . . . . . . .  	Number	00A4		Global
$LOCATE  . . . . . . . . . . . .  	Number	00CA		Global
$LOF . . . . . . . . . . . . . .  	Number	00A5		Global
$LOG . . . . . . . . . . . . . .  	Number	008A		Global
$LPOS  . . . . . . . . . . . . .  	Number	009B		Global
$LPRINT  . . . . . . . . . . . .  	Number	009D		Global
$LSET  . . . . . . . . . . . . .  	Number	0085		Global
$MERGE . . . . . . . . . . . . .  	Number	00BD		Global
$MID$  . . . . . . . . . . . . .  	Number	0083		Global
$MKD$  . . . . . . . . . . . . .  	Number	0086		Global
$MKDIR . . . . . . . . . . . . .  	Number	0098		Global
$MKI$  . . . . . . . . . . . . .  	Number	0084		Global
$MKS$  . . . . . . . . . . . . .  	Number	0085		Global
$MOD . . . . . . . . . . . . . .  	Number	00F3		Global
$MOTOR . . . . . . . . . . . . .  	Number	00C1		Global
$NAME  . . . . . . . . . . . . .  	Number	0084		Global
$NEW . . . . . . . . . . . . . .  	Number	0094		Global
$NEXT  . . . . . . . . . . . . .  	Number	0083		Global
$NOT . . . . . . . . . . . . . .  	Number	00D3		Global
$OCT$  . . . . . . . . . . . . .  	Number	0099		Global
$OFF . . . . . . . . . . . . . .  	Number	00DD		Global
$ON  . . . . . . . . . . . . . .  	Number	0095		Global
$OPEN  . . . . . . . . . . . . .  	Number	00BA		Global
$OPTION  . . . . . . . . . . . .  	Number	00B8		Global
$OR  . . . . . . . . . . . . . .  	Number	00EF		Global
$OUT . . . . . . . . . . . . . .  	Number	009C		Global
Microsoft (R) Macro Assembler  Version 4.00                 7/13/20 11:13:55

IBMRES - IBM compatible reserved words / MLC                Symbols-13
                                                             

$PAINT . . . . . . . . . . . . .  	Number	008F		Global
$PALETTE . . . . . . . . . . . .  	Number	009F		Global
$PEEK  . . . . . . . . . . . . .  	Number	0097		Global
$PEN . . . . . . . . . . . . . .  	Number	00A0		Global
$PEN2B . . . . . . . . . . . . .  	Number	FFA0		Global
$PLAY  . . . . . . . . . . . . .  	Number	0093		Global
$PMAP  . . . . . . . . . . . . .  	Number	009E		Global
$POINT . . . . . . . . . . . . .  	Number	00DC		Global
$POKE  . . . . . . . . . . . . .  	Number	0098		Global
$POS . . . . . . . . . . . . . .  	Number	0091		Global
$PRESET  . . . . . . . . . . . .  	Number	00C7		Global
$PRINT . . . . . . . . . . . . .  	Number	0091		Global
$PSET  . . . . . . . . . . . . .  	Number	00C6		Global
$PUT . . . . . . . . . . . . . .  	Number	0088		Global
$Q . . . . . . . . . . . . . . .  	Number	0024	
$RANDOMIZE . . . . . . . . . . .  	Number	00B9		Global
$READ  . . . . . . . . . . . . .  	Number	0087		Global
$REM . . . . . . . . . . . . . .  	Number	008F		Global
$REMCO . . . . . . . . . . . . .  	Number	0055		Global
$RENUM . . . . . . . . . . . . .  	Number	00AB		Global
$RESET . . . . . . . . . . . . .  	Number	008A		Global
$RESTORE . . . . . . . . . . . .  	Number	008C		Global
$RESUME  . . . . . . . . . . . .  	Number	00A8		Global
$RETURN  . . . . . . . . . . . .  	Number	008E		Global
$RIGHT$  . . . . . . . . . . . .  	Number	0082		Global
$RMDIR . . . . . . . . . . . . .  	Number	0099		Global
$RND . . . . . . . . . . . . . .  	Number	0088		Global
$RNDFN . . . . . . . . . . . . .  	Number	0007		Global
$RSET  . . . . . . . . . . . . .  	Number	0086		Global
$RUN . . . . . . . . . . . . . .  	Number	008A		Global
$SAVE  . . . . . . . . . . . . .  	Number	00BE		Global
$SCREEN  . . . . . . . . . . . .  	Number	00C8		Global
$SGN . . . . . . . . . . . . . .  	Number	0084		Global
$SHELL . . . . . . . . . . . . .  	Number	009A		Global
$SIN . . . . . . . . . . . . . .  	Number	0089		Global
$SOUND . . . . . . . . . . . . .  	Number	00C4		Global
$SPACE$  . . . . . . . . . . . .  	Number	0098		Global
$SPC . . . . . . . . . . . . . .  	Number	00D2		Global
$SQR . . . . . . . . . . . . . .  	Number	0087		Global
$STEP  . . . . . . . . . . . . .  	Number	00CF		Global
$STICK . . . . . . . . . . . . .  	Number	00A1		Global
$STOP  . . . . . . . . . . . . .  	Number	0090		Global
$STR$  . . . . . . . . . . . . .  	Number	0093		Global
$STR2B . . . . . . . . . . . . .  	Number	FFA2		Global
$STRIG . . . . . . . . . . . . .  	Number	00A2		Global
$STRING$ . . . . . . . . . . . .  	Number	00D6		Global
$SWAP  . . . . . . . . . . . . .  	Number	00A4		Global
$SYSTEM  . . . . . . . . . . . .  	Number	0083		Global
$TAB . . . . . . . . . . . . . .  	Number	00CE		Global
$TAN . . . . . . . . . . . . . .  	Number	008D		Global
$THEN  . . . . . . . . . . . . .  	Number	00CD		Global
$TIME$ . . . . . . . . . . . . .  	Number	008E		Global
$TIMER . . . . . . . . . . . . .  	Number	0094		Global
$TO  . . . . . . . . . . . . . .  	Number	00CC		Global
Microsoft (R) Macro Assembler  Version 4.00                 7/13/20 11:13:55

IBMRES - IBM compatible reserved words / MLC                Symbols-14
                                                             

$TROFF . . . . . . . . . . . . .  	Number	00A3		Global
$TRON  . . . . . . . . . . . . .  	Number	00A2		Global
$USING . . . . . . . . . . . . .  	Number	00D7		Global
$USR . . . . . . . . . . . . . .  	Number	00D0		Global
$VAL . . . . . . . . . . . . . .  	Number	0094		Global
$VARPTR  . . . . . . . . . . . .  	Number	00DA		Global
$VIEW  . . . . . . . . . . . . .  	Number	009C		Global
$WAIT  . . . . . . . . . . . . .  	Number	0096		Global
$WEND  . . . . . . . . . . . . .  	Number	00B2		Global
$WHILE . . . . . . . . . . . . .  	Number	00B1		Global
$WIDTH . . . . . . . . . . . . .  	Number	00A0		Global
$WINDOW  . . . . . . . . . . . .  	Number	009D		Global
$WRITE . . . . . . . . . . . . .  	Number	00B7		Global
$XOR . . . . . . . . . . . . . .  	Number	00F0		Global
??L000 . . . . . . . . . . . . .  	L NEAR	04A1	CSEG
??L001 . . . . . . . . . . . . .  	L NEAR	04B1	CSEG
??L002 . . . . . . . . . . . . .  	L NEAR	04C6	CSEG
??L003 . . . . . . . . . . . . .  	L NEAR	04D4	CSEG
??L004 . . . . . . . . . . . . .  	L NEAR	04EB	CSEG
??L005 . . . . . . . . . . . . .  	L NEAR	051C	CSEG
??L006 . . . . . . . . . . . . .  	L NEAR	0544	CSEG
??L007 . . . . . . . . . . . . .  	L NEAR	055B	CSEG
??L008 . . . . . . . . . . . . .  	L NEAR	0561	CSEG
??L009 . . . . . . . . . . . . .  	L NEAR	057C	CSEG
??L010 . . . . . . . . . . . . .  	L NEAR	0583	CSEG


   1426 Source  Lines
  10655 Total   Lines
    710 Symbols

  27276 Bytes symbol space free

      0 Warning Errors
      0 Severe  Errors
