

Warning: no stack segment

 Start  Stop   Length Name                   Class
 00000H 02203H 02204H DOS                    CODE

  Address         Publics by Name

 0000:0ED8       ALLOC
 0000:0079       APR
 0000:0228       ASSERTS
 0000:008D       AUG
 0000:03CF       AUX_READ
 0000:03DA       AUX_WRITE
 0000:1D66       BPB_OFF
 0000:001E       BPB_TABLE
 0000:0010       BPB_TOTAL
 0000:1D6C       CFG_DATA
 0000:1D6E       CFG_SIZE
 0000:051E       CHK_DEVNAME
 0000:0764       CHK_FILENAME
 0000:000A       CLK_PTR
 0000:010A       DAYS
 0000:1AFC       DAY_OF_WEEK
 0000:001C       DDINT_LEVEL
 0000:00AF       DEC
 0000:055F       DEV_REQUEST
 0000:031C       DISK_READ
 0000:031D       DISK_WRITE
 0000:026B       DOS_BRKPT
 0000:031F       DOS_CALL5
 0000:02AC       DOS_CHECK
 0000:0311       DOS_CTRLC
 0000:0332       DOS_DDINT_ENTER
 0000:0339       DOS_DDINT_LEAVE
 0000:031B       DOS_DEFAULT
 0000:0229       DOS_DVERR
 0000:029F       DOS_ENTER
 0000:0319       DOS_ERROR
 0000:02F7       DOS_EXIT
 0000:030F       DOS_EXRET
 0000:029A       DOS_FUNC
 0000:026C       DOS_OFERR
 0000:0298       DOS_RESTART
 0000:1D68       DOS_SEG
 0000:0248       DOS_SSTEP
 0000:028B       DOS_TERM
 0000:031E       DOS_TSR
 0000:068C       DSK_FFILL
 0000:066B       DSK_FFIRST
 0000:05DA       DSK_FLUSH
 0000:0703       DSK_FNEXT
 0000:0639       DSK_GETDRV
 0000:064F       DSK_GETDTA
 0000:0607       DSK_SETDRV
 0000:0620       DSK_SETDTA
 0000:20EB       FATAL_ERROR
 0000:006A       FEB
 0000:0011       FILE_NAME
 0000:206E       FIND_CFG
 0000:0813       FIND_CLN
 0000:0FC5       FREE
 0000:00F9       FRI
 0000:0124       FUNCTBL
 0000:0052  Abs  FUNCTBL_SIZE
 0000:0359       FUNC_NONE
 0000:085E       GET_BPB
 0000:089B       GET_CLN
 0000:0900       GET_DIRENT
 0000:0DFB       GET_PFT_FREE
 0000:1478       GET_SCB
 0000:149B       GET_SCBNUM
 0000:0DC7       GET_SFB
 0000:1145       GET_VECOFF
 0000:0A55       HDL_CLOSE
 0000:0A2F       HDL_OPEN
 0000:0A71       HDL_READ
 0000:0ABA       HDL_SEEK
 0000:0A95       HDL_WRITE
 0000:20A7       INIT_TABLE
 0000:20F4       INT_TABLES
 0000:212C       INT_TABLES_END
 0000:179F       ITOA
 0000:0062       JAN
 0000:0088       JUL
 0000:0083       JUN
 0000:12E6       LOAD_PROGRAM
 0000:0073       MAR
 0000:007F       MAY
 0000:0000       MCB_HEAD
 0000:0E9D       MCB_INIT
 0000:0002       MCB_LIMIT
 0000:0EB5       MCB_SPLIT
 0000:0E52       MEM_ALLOC
 0000:0E6A       MEM_FREE
 0000:0E82       MEM_REALLOC
 0000:00D7       MON
 0000:00B8       MONTHS
 0000:0118       MONTH_DAYS
 0000:1124       MSC_GETVEC
 0000:108A       MSC_SETCTRLC
 0000:1067       MSC_SETVEC
 0000:10B9       MSC_SIGCTRLC
 0000:10C5       MSC_SIGCTRLC_READ
 0000:00A6       NOV
 0000:009E       OCT
 0000:1F69       OPEN_ERROR
 0000:20E5       PRINT_ERROR
 0000:03E5       PRN_WRITE
 0000:0008       PSP_ACTIVE
 0000:11E7       PSP_CREATE
 0000:1287       PSP_EXEC
 0000:12C4       PSP_GET
 0000:12A7       PSP_SET
 0000:116B       PSP_TERM
 0000:09DB       READ_BUFFER
 0000:049B       READ_CHAR
 0000:0F63       REALLOC
 0000:0100       SAT
 0000:0006       SCB_ACTIVE
 0000:16A6       SCB_ENDWAIT
 0000:14DE       SCB_INIT
 0000:14BC       SCB_LOAD
 0000:14FB       SCB_LOCK
 0000:000E       SCB_LOCKED
 0000:158D       SCB_START
 0000:15A5       SCB_STOP
 0000:161C       SCB_SWITCH
 0000:0022       SCB_TABLE
 0000:15B2       SCB_UNLOAD
 0000:1552       SCB_UNLOCK
 0000:1675       SCB_WAIT
 0000:15BE       SCB_YIELD
 0000:0094       SEP
 0000:0E26       SET_PFT_FREE
 0000:0D71       SFB_CLOSE
 0000:0AE5       SFB_OPEN
 0000:0BC3       SFB_READ
 0000:0CE2       SFB_SEEK
 0000:0026       SFB_TABLE
 0000:0D2E       SFB_WRITE
 0000:188F       SPRINTF
 0000:16EE       STRLEN
 0000:1716       STRUPR
 0000:005E       STR_CTRLC
 0000:00D0       SUN
 0000:1D70       SYSINIT
 0000:2204       SYSINIT_END
 0000:20E2       SYSINIT_ERROR
 0000:1DCC       SYSINIT_HIGH
 0000:1D66       SYSINIT_START
 0000:00F0       THU
 0000:1D6A       TOP_SEG
 0000:03AD       TTY_ECHO
 0000:0490       TTY_FLUSH
 0000:03F5       TTY_IN
 0000:042A       TTY_INPUT
 0000:03ED       TTY_IO
 0000:0412       TTY_PRINT
 0000:0403       TTY_READ
 0000:0485       TTY_STATUS
 0000:03C0       TTY_WRITE
 0000:00DE       TUE
 0000:01C8       UTILTBL
 0000:0030  Abs  UTILTBL_SIZE
 0000:1737       UTL_ATOI
 0000:1C22       UTL_ENDWAIT
 0000:1B5B       UTL_GETDEV
 0000:1C35       UTL_HOTKEY
 0000:1B7C       UTL_IOCTL
 0000:1793       UTL_ITOA
 0000:1B90       UTL_LOAD
 0000:1849       UTL_PRINTF
 0000:1BF0       UTL_SLEEP
 0000:1874       UTL_SPRINTF
 0000:1BA6       UTL_START
 0000:1BB8       UTL_STOP
 0000:16E3       UTL_STRLEN
 0000:1712       UTL_STRUPR
 0000:1CF6       UTL_TOKID
 0000:1C6E       UTL_TOKIFY
 0000:1BCC       UTL_UNLOAD
 0000:1C13       UTL_WAIT
 0000:1BDF       UTL_YIELD
 0000:002A       VALID_CHARS
 0000:0034  Abs  VALID_COUNT
 0000:00E6       WED
 0000:04C9       WRITE_CHAR
 0000:04E9       WRITE_STRING

  Address         Publics by Value

 0000:0000       MCB_HEAD
 0000:0002       MCB_LIMIT
 0000:0006       SCB_ACTIVE
 0000:0008       PSP_ACTIVE
 0000:000A       CLK_PTR
 0000:000E       SCB_LOCKED
 0000:0010       BPB_TOTAL
 0000:0011       FILE_NAME
 0000:001C       DDINT_LEVEL
 0000:001E       BPB_TABLE
 0000:0022       SCB_TABLE
 0000:0026       SFB_TABLE
 0000:002A       VALID_CHARS
 0000:0030  Abs  UTILTBL_SIZE
 0000:0034  Abs  VALID_COUNT
 0000:0052  Abs  FUNCTBL_SIZE
 0000:005E       STR_CTRLC
 0000:0062       JAN
 0000:006A       FEB
 0000:0073       MAR
 0000:0079       APR
 0000:007F       MAY
 0000:0083       JUN
 0000:0088       JUL
 0000:008D       AUG
 0000:0094       SEP
 0000:009E       OCT
 0000:00A6       NOV
 0000:00AF       DEC
 0000:00B8       MONTHS
 0000:00D0       SUN
 0000:00D7       MON
 0000:00DE       TUE
 0000:00E6       WED
 0000:00F0       THU
 0000:00F9       FRI
 0000:0100       SAT
 0000:010A       DAYS
 0000:0118       MONTH_DAYS
 0000:0124       FUNCTBL
 0000:01C8       UTILTBL
 0000:0228       ASSERTS
 0000:0229       DOS_DVERR
 0000:0248       DOS_SSTEP
 0000:026B       DOS_BRKPT
 0000:026C       DOS_OFERR
 0000:028B       DOS_TERM
 0000:0298       DOS_RESTART
 0000:029A       DOS_FUNC
 0000:029F       DOS_ENTER
 0000:02AC       DOS_CHECK
 0000:02F7       DOS_EXIT
 0000:030F       DOS_EXRET
 0000:0311       DOS_CTRLC
 0000:0319       DOS_ERROR
 0000:031B       DOS_DEFAULT
 0000:031C       DISK_READ
 0000:031D       DISK_WRITE
 0000:031E       DOS_TSR
 0000:031F       DOS_CALL5
 0000:0332       DOS_DDINT_ENTER
 0000:0339       DOS_DDINT_LEAVE
 0000:0359       FUNC_NONE
 0000:03AD       TTY_ECHO
 0000:03C0       TTY_WRITE
 0000:03CF       AUX_READ
 0000:03DA       AUX_WRITE
 0000:03E5       PRN_WRITE
 0000:03ED       TTY_IO
 0000:03F5       TTY_IN
 0000:0403       TTY_READ
 0000:0412       TTY_PRINT
 0000:042A       TTY_INPUT
 0000:0485       TTY_STATUS
 0000:0490       TTY_FLUSH
 0000:049B       READ_CHAR
 0000:04C9       WRITE_CHAR
 0000:04E9       WRITE_STRING
 0000:051E       CHK_DEVNAME
 0000:055F       DEV_REQUEST
 0000:05DA       DSK_FLUSH
 0000:0607       DSK_SETDRV
 0000:0620       DSK_SETDTA
 0000:0639       DSK_GETDRV
 0000:064F       DSK_GETDTA
 0000:066B       DSK_FFIRST
 0000:068C       DSK_FFILL
 0000:0703       DSK_FNEXT
 0000:0764       CHK_FILENAME
 0000:0813       FIND_CLN
 0000:085E       GET_BPB
 0000:089B       GET_CLN
 0000:0900       GET_DIRENT
 0000:09DB       READ_BUFFER
 0000:0A2F       HDL_OPEN
 0000:0A55       HDL_CLOSE
 0000:0A71       HDL_READ
 0000:0A95       HDL_WRITE
 0000:0ABA       HDL_SEEK
 0000:0AE5       SFB_OPEN
 0000:0BC3       SFB_READ
 0000:0CE2       SFB_SEEK
 0000:0D2E       SFB_WRITE
 0000:0D71       SFB_CLOSE
 0000:0DC7       GET_SFB
 0000:0DFB       GET_PFT_FREE
 0000:0E26       SET_PFT_FREE
 0000:0E52       MEM_ALLOC
 0000:0E6A       MEM_FREE
 0000:0E82       MEM_REALLOC
 0000:0E9D       MCB_INIT
 0000:0EB5       MCB_SPLIT
 0000:0ED8       ALLOC
 0000:0F63       REALLOC
 0000:0FC5       FREE
 0000:1067       MSC_SETVEC
 0000:108A       MSC_SETCTRLC
 0000:10B9       MSC_SIGCTRLC
 0000:10C5       MSC_SIGCTRLC_READ
 0000:1124       MSC_GETVEC
 0000:1145       GET_VECOFF
 0000:116B       PSP_TERM
 0000:11E7       PSP_CREATE
 0000:1287       PSP_EXEC
 0000:12A7       PSP_SET
 0000:12C4       PSP_GET
 0000:12E6       LOAD_PROGRAM
 0000:1478       GET_SCB
 0000:149B       GET_SCBNUM
 0000:14BC       SCB_LOAD
 0000:14DE       SCB_INIT
 0000:14FB       SCB_LOCK
 0000:1552       SCB_UNLOCK
 0000:158D       SCB_START
 0000:15A5       SCB_STOP
 0000:15B2       SCB_UNLOAD
 0000:15BE       SCB_YIELD
 0000:161C       SCB_SWITCH
 0000:1675       SCB_WAIT
 0000:16A6       SCB_ENDWAIT
 0000:16E3       UTL_STRLEN
 0000:16EE       STRLEN
 0000:1712       UTL_STRUPR
 0000:1716       STRUPR
 0000:1737       UTL_ATOI
 0000:1793       UTL_ITOA
 0000:179F       ITOA
 0000:1849       UTL_PRINTF
 0000:1874       UTL_SPRINTF
 0000:188F       SPRINTF
 0000:1AFC       DAY_OF_WEEK
 0000:1B5B       UTL_GETDEV
 0000:1B7C       UTL_IOCTL
 0000:1B90       UTL_LOAD
 0000:1BA6       UTL_START
 0000:1BB8       UTL_STOP
 0000:1BCC       UTL_UNLOAD
 0000:1BDF       UTL_YIELD
 0000:1BF0       UTL_SLEEP
 0000:1C13       UTL_WAIT
 0000:1C22       UTL_ENDWAIT
 0000:1C35       UTL_HOTKEY
 0000:1C6E       UTL_TOKIFY
 0000:1CF6       UTL_TOKID
 0000:1D66       BPB_OFF
 0000:1D66       SYSINIT_START
 0000:1D68       DOS_SEG
 0000:1D6A       TOP_SEG
 0000:1D6C       CFG_DATA
 0000:1D6E       CFG_SIZE
 0000:1D70       SYSINIT
 0000:1DCC       SYSINIT_HIGH
 0000:1F69       OPEN_ERROR
 0000:206E       FIND_CFG
 0000:20A7       INIT_TABLE
 0000:20E2       SYSINIT_ERROR
 0000:20E5       PRINT_ERROR
 0000:20EB       FATAL_ERROR
 0000:20F4       INT_TABLES
 0000:212C       INT_TABLES_END
 0000:2204       SYSINIT_END
