

Warning: no stack segment

 Start  Stop   Length Name                   Class
 00000H 02A91H 02A92H CODE                   CODE
 02A92H 02C49H 001B8H DATA                   CODE

 Origin   Group
 0000:0   DGROUP

  Address         Publics by Name

 0000:16C0       ADDLABEL
 0000:0EC7       ADDSTRING
 0000:267A       ADDVAR
 0000:2524       ALLOCBLOCK
 0000:2527       ALLOCBLOCKSIZE
 0000:25B0       ALLOCCODE
 0000:25B2       ALLOCCODEBLOCK
 0000:25EB       ALLOCFUNC
 0000:2666       ALLOCSTRSPACE
 0000:261D       ALLOCTEMPVARS
 0000:25FE       ALLOCTEXT
 0000:2611       ALLOCVARS
 0000:287D       BAS_EXT
 0000:0005  Abs  BAS_EXT_LEN
 0000:2878       BAT_EXT
 0000:0005  Abs  BAT_EXT_LEN
 0000:2C26       BEG_HEAP
 0000:28B2       BLK_NAMES
 0000:0024  Abs  BLK_NAMES_LEN
 0000:28D6       BLK_UNKNOWN
 0000:0006  Abs  BLK_UNKNOWN_LEN
 0000:0012  Abs  BLK_WORDS
 0000:1A72       CALLDOS
 0000:0ED7       CHKSTRING
 0000:019B       CLEANUP
 0000:1ABC       CLEARSCREEN
 0000:0DA9       CLOSEINPUT
 0000:05F3       CMDCOPY
 0000:0676       CMDDATE
 0000:070C       CMDDIR
 0000:0386       CMDDOS
 0000:03B4       CMDEXEC
 0000:0881       CMDEXIT
 0000:0405       CMDFILE
 0000:0884       CMDHELP
 0000:0A5A       CMDKEYS
 0000:0A5D       CMDLIST
 0000:0A8C       CMDLOAD
 0000:2018       CMDMEM
 0000:0BCB       CMDNEW
 0000:0BD2       CMDRESTART
 0000:0BD7       CMDRUN
 0000:0BD9       CMDRUNFLAGS
 0000:03C6       CMDSTART
 0000:0BF2       CMDTIME
 0000:0D09       CMDTYPE
 0000:0D1E       CMDVER
 0000:286E       COM_EXT
 0000:0005  Abs  COM_EXT_LEN
 0000:1F7C       CONV1DOUBLETOLONG
 0000:1F94       CONV1LONGTODOUBLE
 0000:1F80       CONV2DOUBLETOLONG
 0000:1F98       CONV2LONGTODOUBLE
 0000:1F8C       CONVDOUBLE1TOLONG
 0000:1F90       CONVDOUBLE2TOLONG
 0000:1F84       CONVLONG1TODOUBLE
 0000:1F88       CONVLONG2TODOUBLE
 0000:09E3       COUNTLINE
 0000:01D3       CTRLC
 0000:2882       DIR_DEF
 0000:0004  Abs  DIR_DEF_LEN
 0000:0890       DOHELP
 0000:28AC       DOS_MEM
 0000:0006  Abs  DOS_MEM_LEN
 0000:1C3A       EVALADDLONG
 0000:22F8       EVALADDSTR
 0000:1EA7       EVALANDLONG
 0000:1CDF       EVALDIVLONG
 0000:1CE1       EVALDIVMODLONG
 0000:1EBA       EVALEQLONG
 0000:23A7       EVALEQSTR
 0000:1E68       EVALEQVLONG
 0000:1D9F       EVALEXPLONG
 0000:1F2A       EVALGELONG
 0000:241C       EVALGESTR
 0000:1F20       EVALGTLONG
 0000:2412       EVALGTSTR
 0000:1E4F       EVALIMPLONG
 0000:1F25       EVALLELONG
 0000:2417       EVALLESTR
 0000:1F1B       EVALLTLONG
 0000:240D       EVALLTSTR
 0000:1D9A       EVALMODLONG
 0000:1C62       EVALMULLONG
 0000:1E35       EVALNEGLONG
 0000:1F16       EVALNELONG
 0000:2408       EVALNESTR
 0000:1E44       EVALNOTLONG
 0000:1E94       EVALORLONG
 0000:1EBD       EVALRELLONG
 0000:23AA       EVALRELSTR
 0000:1F2F       EVALSHLLONG
 0000:1F5C       EVALSHRLONG
 0000:1C4E       EVALSUBLONG
 0000:1E81       EVALXORLONG
 0000:295B       EVAL_DOUBLE
 0000:292F       EVAL_LONG
 0000:2987       EVAL_STR
 0000:2873       EXE_EXT
 0000:0005  Abs  EXE_EXT_LEN
 0000:0EBC       FINDFILE
 0000:1761       FINDLABEL
 0000:24A5       FINDSTRSPACE
 0000:274D       FINDVAR
 0000:25A1       FREEALLBLOCKS
 0000:25E3       FREEALLCODE
 0000:2608       FREEALLTEXT
 0000:264E       FREEALLVARS
 0000:2579       FREEBLOCK
 0000:25DB       FREECODE
 0000:25F4       FREEFUNC
 0000:2421       FREESTR
 0000:2670       FREESTRSPACE
 0000:263F       FREETEMPVARS
 0000:28DC       FREE_MEM
 0000:0007  Abs  FREE_MEM_LEN
 0000:17DE       GENCALLCS
 0000:17E0       GENCALLFAR
 0000:1078       GENCLS
 0000:0F8E       GENCODE
 0000:10B9       GENCOLOR
 0000:1051       GENCOMMANDS
 0000:128B       GENDEFDBL
 0000:10D3       GENDEFFN
 0000:122C       GENDEFINT
 0000:1291       GENDEFSTR
 0000:1230       GENDEFVAR
 0000:107F       GENDOS
 0000:1297       GENECHO
 0000:12C0       GENEXPR
 0000:14FD       GENFUNCEXPR
 0000:15B4       GENFUNCPARM
 0000:15D2       GENGOTO
 0000:15F8       GENIF
 0000:1636       GENLET
 0000:145F       GENOP
 0000:17EB       GENPOPBPOFFSET
 0000:166A       GENPRINT
 0000:1800       GENPUSHBPOFFSET
 0000:1824       GENPUSHIMM
 0000:1831       GENPUSHIMMBYTE
 0000:182F       GENPUSHIMMBYTEAH
 0000:182D       GENPUSHIMMBYTEAL
 0000:1836       GENPUSHIMMLONG
 0000:186D       GENPUSHLONG
 0000:185B       GENPUSHSTR
 0000:1872       GENPUSHVARLONG
 0000:1815       GENPUSHVARPTR
 0000:1869       GENPUSHZEROLONG
 0000:16AA       GENRETURN
 0000:127F       GETCHARTOKEN
 0000:1F9C       GETERRORLEVEL
 0000:059E       GETFILENAME
 0000:0EE2       GETINPUT
 0000:189D       GETNEXTLINE
 0000:1970       GETNEXTSYMBOL
 0000:197A       GETNEXTTOKEN
 0000:1FB4       GETRNDLONG
 0000:05C9       GETTOKEN
 0000:0F61       GETVALUE
 0000:0F15       GETVALUES
 0000:27B9       GETVAR
 0000:27BF       GETVARLEN
 0000:0981       GETWORD
 0000:2890       HELP_FILE
 0000:0009  Abs  HELP_FILE_LEN
 0000:2BDE       KEYOP_TOKENS
 0000:2A92       KEYWORD_TOKENS
 0000:15AA       LOADFUNCDATA
 0000:0100       MAIN
 0000:22D2       MEMERROR
 0000:28E3       OPDEFS
 0000:064E       OPENERROR
 0000:0E7D       OPENHANDLE
 0000:0D71       OPENINPUT
 0000:0D8D       OPENOUTPUT
 0000:0EA4       OPENPIPE
 0000:01E0       PARSECMD
 0000:0218       PARSEDOS
 0000:1A0E       PEEKNEXTSYMBOL
 0000:1A14       PEEKNEXTTOKEN
 0000:1A18       PEEKRETURN
 0000:2886       PERIOD
 0000:0002  Abs  PERIOD_LEN
 0000:2899       PIPE_NAME
 0000:0006  Abs  PIPE_NAME_LEN
 0000:144C       POPTYPE
 0000:29CF       PREDEF_VARS
 0000:1AC7       PRINTARGS
 0000:0994       PRINTCHAR
 0000:099C       PRINTCHARS
 0000:0A4F       PRINTCRLF
 0000:1B5F       PRINTECHO
 0000:0A4D       PRINTEOL
 0000:2251       PRINTKB
 0000:1B8A       PRINTLINE
 0000:09B9       PRINTSPACE
 0000:1BA1       PRINTSTR
 0000:0CB4       PRINTTIME
 0000:06BB       PROMPTDATE
 0000:0CA6       PROMPTTIME
 0000:1435       PUSHTYPE
 0000:0DC7       READINPUT
 0000:29B3       RELOPS
 0000:27ED       REMOVEVAR
 0000:0DFF       SEEKINPUT
 0000:1BCD       SETCOLOR
 0000:1C1F       SETFLAGS
 0000:2459       SETSTR
 0000:2863       SETVAR
 0000:200B       SETVARLONG
 0000:25BD       SHRINKCODE
 0000:0E17       SIZEINPUT
 0000:09D3       SKIPSPACE
 0000:28A2       STR_OFF
 0000:0004  Abs  STR_OFF_LEN
 0000:289F       STR_ON
 0000:0003  Abs  STR_ON_LEN
 0000:28A6       SYS_MEM
 0000:0006  Abs  SYS_MEM_LEN
 0000:0041  Abs  TOK_AND
 0000:0028  Abs  TOK_CLS
 0000:0029  Abs  TOK_COLOR
 0000:0014  Abs  TOK_COPY
 0000:000A  Abs  TOK_DATE
 0000:002A  Abs  TOK_DEF
 0000:002B  Abs  TOK_DEFDBL
 0000:002C  Abs  TOK_DEFINT
 0000:002D  Abs  TOK_DEFSNG
 0000:002E  Abs  TOK_DEFSTR
 0000:0015  Abs  TOK_DIR
 0000:002F  Abs  TOK_ECHO
 0000:00C9  Abs  TOK_ELSE
 0000:0045  Abs  TOK_EQV
 0000:0001  Abs  TOK_EXIT
 0000:0030  Abs  TOK_GOTO
 0000:0002  Abs  TOK_HELP
 0000:0031  Abs  TOK_IF
 0000:0049  Abs  TOK_IMP
 0000:0003  Abs  TOK_KEYS
 0000:0032  Abs  TOK_LET
 0000:0004  Abs  TOK_LIST
 0000:0016  Abs  TOK_LOAD
 0000:0005  Abs  TOK_MEM
 0000:004D  Abs  TOK_MOD
 0000:0006  Abs  TOK_NEW
 0000:007E  Abs  TOK_NOT
 0000:00CA  Abs  TOK_OFF
 0000:00CB  Abs  TOK_ON
 0000:007C  Abs  TOK_OR
 0000:0033  Abs  TOK_PRINT
 0000:0034  Abs  TOK_REM
 0000:0007  Abs  TOK_RESTART
 0000:0035  Abs  TOK_RETURN
 0000:0008  Abs  TOK_RUN
 0000:00CC  Abs  TOK_THEN
 0000:000B  Abs  TOK_TIME
 0000:0017  Abs  TOK_TYPE
 0000:0009  Abs  TOK_VER
 0000:0058  Abs  TOK_XOR
 0000:2630       UPDATETEMPVARS
 0000:1A23       VALIDATEOP
 0000:2888       VER_DEBUG
 0000:0006  Abs  VER_DEBUG_LEN
 0000:288E       VER_FINAL
 0000:0002  Abs  VER_FINAL_LEN
 0000:0E44       WRITEOUTPUT
 0000:1BB0       WRITESTR
 0000:1BC2       WRITESTRCRLF

  Address         Publics by Value

 0000:0001  Abs  TOK_EXIT
 0000:0002  Abs  PERIOD_LEN
 0000:0002  Abs  VER_FINAL_LEN
 0000:0002  Abs  TOK_HELP
 0000:0003  Abs  TOK_KEYS
 0000:0003  Abs  STR_ON_LEN
 0000:0004  Abs  TOK_LIST
 0000:0004  Abs  STR_OFF_LEN
 0000:0004  Abs  DIR_DEF_LEN
 0000:0005  Abs  BAT_EXT_LEN
 0000:0005  Abs  COM_EXT_LEN
 0000:0005  Abs  TOK_MEM
 0000:0005  Abs  BAS_EXT_LEN
 0000:0005  Abs  EXE_EXT_LEN
 0000:0006  Abs  VER_DEBUG_LEN
 0000:0006  Abs  TOK_NEW
 0000:0006  Abs  SYS_MEM_LEN
 0000:0006  Abs  DOS_MEM_LEN
 0000:0006  Abs  PIPE_NAME_LEN
 0000:0006  Abs  BLK_UNKNOWN_LEN
 0000:0007  Abs  FREE_MEM_LEN
 0000:0007  Abs  TOK_RESTART
 0000:0008  Abs  TOK_RUN
 0000:0009  Abs  TOK_VER
 0000:0009  Abs  HELP_FILE_LEN
 0000:000A  Abs  TOK_DATE
 0000:000B  Abs  TOK_TIME
 0000:0012  Abs  BLK_WORDS
 0000:0014  Abs  TOK_COPY
 0000:0015  Abs  TOK_DIR
 0000:0016  Abs  TOK_LOAD
 0000:0017  Abs  TOK_TYPE
 0000:0024  Abs  BLK_NAMES_LEN
 0000:0028  Abs  TOK_CLS
 0000:0029  Abs  TOK_COLOR
 0000:002A  Abs  TOK_DEF
 0000:002B  Abs  TOK_DEFDBL
 0000:002C  Abs  TOK_DEFINT
 0000:002D  Abs  TOK_DEFSNG
 0000:002E  Abs  TOK_DEFSTR
 0000:002F  Abs  TOK_ECHO
 0000:0030  Abs  TOK_GOTO
 0000:0031  Abs  TOK_IF
 0000:0032  Abs  TOK_LET
 0000:0033  Abs  TOK_PRINT
 0000:0034  Abs  TOK_REM
 0000:0035  Abs  TOK_RETURN
 0000:0041  Abs  TOK_AND
 0000:0045  Abs  TOK_EQV
 0000:0049  Abs  TOK_IMP
 0000:004D  Abs  TOK_MOD
 0000:0058  Abs  TOK_XOR
 0000:007C  Abs  TOK_OR
 0000:007E  Abs  TOK_NOT
 0000:00C9  Abs  TOK_ELSE
 0000:00CA  Abs  TOK_OFF
 0000:00CB  Abs  TOK_ON
 0000:00CC  Abs  TOK_THEN
 0000:0100       MAIN
 0000:019B       CLEANUP
 0000:01D3       CTRLC
 0000:01E0       PARSECMD
 0000:0218       PARSEDOS
 0000:0386       CMDDOS
 0000:03B4       CMDEXEC
 0000:03C6       CMDSTART
 0000:0405       CMDFILE
 0000:059E       GETFILENAME
 0000:05C9       GETTOKEN
 0000:05F3       CMDCOPY
 0000:064E       OPENERROR
 0000:0676       CMDDATE
 0000:06BB       PROMPTDATE
 0000:070C       CMDDIR
 0000:0881       CMDEXIT
 0000:0884       CMDHELP
 0000:0890       DOHELP
 0000:0981       GETWORD
 0000:0994       PRINTCHAR
 0000:099C       PRINTCHARS
 0000:09B9       PRINTSPACE
 0000:09D3       SKIPSPACE
 0000:09E3       COUNTLINE
 0000:0A4D       PRINTEOL
 0000:0A4F       PRINTCRLF
 0000:0A5A       CMDKEYS
 0000:0A5D       CMDLIST
 0000:0A8C       CMDLOAD
 0000:0BCB       CMDNEW
 0000:0BD2       CMDRESTART
 0000:0BD7       CMDRUN
 0000:0BD9       CMDRUNFLAGS
 0000:0BF2       CMDTIME
 0000:0CA6       PROMPTTIME
 0000:0CB4       PRINTTIME
 0000:0D09       CMDTYPE
 0000:0D1E       CMDVER
 0000:0D71       OPENINPUT
 0000:0D8D       OPENOUTPUT
 0000:0DA9       CLOSEINPUT
 0000:0DC7       READINPUT
 0000:0DFF       SEEKINPUT
 0000:0E17       SIZEINPUT
 0000:0E44       WRITEOUTPUT
 0000:0E7D       OPENHANDLE
 0000:0EA4       OPENPIPE
 0000:0EBC       FINDFILE
 0000:0EC7       ADDSTRING
 0000:0ED7       CHKSTRING
 0000:0EE2       GETINPUT
 0000:0F15       GETVALUES
 0000:0F61       GETVALUE
 0000:0F8E       GENCODE
 0000:1051       GENCOMMANDS
 0000:1078       GENCLS
 0000:107F       GENDOS
 0000:10B9       GENCOLOR
 0000:10D3       GENDEFFN
 0000:122C       GENDEFINT
 0000:1230       GENDEFVAR
 0000:127F       GETCHARTOKEN
 0000:128B       GENDEFDBL
 0000:1291       GENDEFSTR
 0000:1297       GENECHO
 0000:12C0       GENEXPR
 0000:1435       PUSHTYPE
 0000:144C       POPTYPE
 0000:145F       GENOP
 0000:14FD       GENFUNCEXPR
 0000:15AA       LOADFUNCDATA
 0000:15B4       GENFUNCPARM
 0000:15D2       GENGOTO
 0000:15F8       GENIF
 0000:1636       GENLET
 0000:166A       GENPRINT
 0000:16AA       GENRETURN
 0000:16C0       ADDLABEL
 0000:1761       FINDLABEL
 0000:17DE       GENCALLCS
 0000:17E0       GENCALLFAR
 0000:17EB       GENPOPBPOFFSET
 0000:1800       GENPUSHBPOFFSET
 0000:1815       GENPUSHVARPTR
 0000:1824       GENPUSHIMM
 0000:182D       GENPUSHIMMBYTEAL
 0000:182F       GENPUSHIMMBYTEAH
 0000:1831       GENPUSHIMMBYTE
 0000:1836       GENPUSHIMMLONG
 0000:185B       GENPUSHSTR
 0000:1869       GENPUSHZEROLONG
 0000:186D       GENPUSHLONG
 0000:1872       GENPUSHVARLONG
 0000:189D       GETNEXTLINE
 0000:1970       GETNEXTSYMBOL
 0000:197A       GETNEXTTOKEN
 0000:1A0E       PEEKNEXTSYMBOL
 0000:1A14       PEEKNEXTTOKEN
 0000:1A18       PEEKRETURN
 0000:1A23       VALIDATEOP
 0000:1A72       CALLDOS
 0000:1ABC       CLEARSCREEN
 0000:1AC7       PRINTARGS
 0000:1B5F       PRINTECHO
 0000:1B8A       PRINTLINE
 0000:1BA1       PRINTSTR
 0000:1BB0       WRITESTR
 0000:1BC2       WRITESTRCRLF
 0000:1BCD       SETCOLOR
 0000:1C1F       SETFLAGS
 0000:1C3A       EVALADDLONG
 0000:1C4E       EVALSUBLONG
 0000:1C62       EVALMULLONG
 0000:1CDF       EVALDIVLONG
 0000:1CE1       EVALDIVMODLONG
 0000:1D9A       EVALMODLONG
 0000:1D9F       EVALEXPLONG
 0000:1E35       EVALNEGLONG
 0000:1E44       EVALNOTLONG
 0000:1E4F       EVALIMPLONG
 0000:1E68       EVALEQVLONG
 0000:1E81       EVALXORLONG
 0000:1E94       EVALORLONG
 0000:1EA7       EVALANDLONG
 0000:1EBA       EVALEQLONG
 0000:1EBD       EVALRELLONG
 0000:1F16       EVALNELONG
 0000:1F1B       EVALLTLONG
 0000:1F20       EVALGTLONG
 0000:1F25       EVALLELONG
 0000:1F2A       EVALGELONG
 0000:1F2F       EVALSHLLONG
 0000:1F5C       EVALSHRLONG
 0000:1F7C       CONV1DOUBLETOLONG
 0000:1F80       CONV2DOUBLETOLONG
 0000:1F84       CONVLONG1TODOUBLE
 0000:1F88       CONVLONG2TODOUBLE
 0000:1F8C       CONVDOUBLE1TOLONG
 0000:1F90       CONVDOUBLE2TOLONG
 0000:1F94       CONV1LONGTODOUBLE
 0000:1F98       CONV2LONGTODOUBLE
 0000:1F9C       GETERRORLEVEL
 0000:1FB4       GETRNDLONG
 0000:200B       SETVARLONG
 0000:2018       CMDMEM
 0000:2251       PRINTKB
 0000:22D2       MEMERROR
 0000:22F8       EVALADDSTR
 0000:23A7       EVALEQSTR
 0000:23AA       EVALRELSTR
 0000:2408       EVALNESTR
 0000:240D       EVALLTSTR
 0000:2412       EVALGTSTR
 0000:2417       EVALLESTR
 0000:241C       EVALGESTR
 0000:2421       FREESTR
 0000:2459       SETSTR
 0000:24A5       FINDSTRSPACE
 0000:2524       ALLOCBLOCK
 0000:2527       ALLOCBLOCKSIZE
 0000:2579       FREEBLOCK
 0000:25A1       FREEALLBLOCKS
 0000:25B0       ALLOCCODE
 0000:25B2       ALLOCCODEBLOCK
 0000:25BD       SHRINKCODE
 0000:25DB       FREECODE
 0000:25E3       FREEALLCODE
 0000:25EB       ALLOCFUNC
 0000:25F4       FREEFUNC
 0000:25FE       ALLOCTEXT
 0000:2608       FREEALLTEXT
 0000:2611       ALLOCVARS
 0000:261D       ALLOCTEMPVARS
 0000:2630       UPDATETEMPVARS
 0000:263F       FREETEMPVARS
 0000:264E       FREEALLVARS
 0000:2666       ALLOCSTRSPACE
 0000:2670       FREESTRSPACE
 0000:267A       ADDVAR
 0000:274D       FINDVAR
 0000:27B9       GETVAR
 0000:27BF       GETVARLEN
 0000:27ED       REMOVEVAR
 0000:2863       SETVAR
 0000:286E       COM_EXT
 0000:2873       EXE_EXT
 0000:2878       BAT_EXT
 0000:287D       BAS_EXT
 0000:2882       DIR_DEF
 0000:2886       PERIOD
 0000:2888       VER_DEBUG
 0000:288E       VER_FINAL
 0000:2890       HELP_FILE
 0000:2899       PIPE_NAME
 0000:289F       STR_ON
 0000:28A2       STR_OFF
 0000:28A6       SYS_MEM
 0000:28AC       DOS_MEM
 0000:28B2       BLK_NAMES
 0000:28D6       BLK_UNKNOWN
 0000:28DC       FREE_MEM
 0000:28E3       OPDEFS
 0000:292F       EVAL_LONG
 0000:295B       EVAL_DOUBLE
 0000:2987       EVAL_STR
 0000:29B3       RELOPS
 0000:29CF       PREDEF_VARS
 0000:2A92       KEYWORD_TOKENS
 0000:2BDE       KEYOP_TOKENS
 0000:2C26       BEG_HEAP

Program entry point at 0000:0100
