Microsoft (R) Macro Assembler  Version 4.00                 7/13/20 11:20:05

FIVEO 5.0 Features -WHILE/WEND, CALL, CHAIN, WRITE /P. AllenPage     1-1
                                                            

                                ; [ This translation created 10-Feb-83 by Versi
				on 4.3 ] 
                                 
 0008                           	.RADIX  8		; To be safe 
                                 
 0000                           CSEG	SEGMENT PUBLIC 'CODESG' 
                                	ASSUME  CS:CSEG 
                                 
                             C  INCLUDE	OEM.INC 
                             C  ; [ This translation created 10-Feb-83 by Versi
				on 4.3 ] 
                             C   
                             C  	SUBTTL  Common file to produce 2-segment 8086 
				GW-CPM BASIC 
                             C   
                             C  	.SALL 
                             C   
 000A                        C  	.RADIX	10 
 = 0000                      C  	OEMRAM=0D 
                             C  ;Pascal program HFILE searches for the followin
				g line - DO NOT MODIFY 
                             C  ;** (VERSION SPECIFIC VALUES) *****************
				******************************* 
 = 0019                      C  	NMLINE=25		;Max screen display text lines 
 = 0001                      C  	NBANKS=1		;Number of graphic planes 
 = 0000                      C  	PALSIZ=0		;Size of OEM color palette 
 = 0000                      C  	DBLCHR=0		;Editor support for KANJI chars 
 = 0000                      C  	KANABS=0		;Kana BASIC (Japanese JIS codes) 
 = 0000                      C  	KANJFN=0		;KANJI String Functions KPOS, KLEN .
				. 
 = 0000                      C  	JISKTN=0		;&K, &J constants (KANJI) 
 = 0001                      C  	SUPRSH=1		;1=super shift key feature 
 = 000A                      C  	NMKEYF=10		;number of function keys 
 = 000E                      C  	NMKEYT=14		;number of function key traps 
 = 0001                      C  	FKEYON=1		;yes=display function keys 
 = 0001                      C  	SCROLT=1		;Line 25 allocated for status only 
 = 0001                      C  	PLAYSW=1		;for PLAY statement 
 = 0001                      C  	BEEPSW=1		;for SOUND, BEEP statements 
 = 0003                      C  	NMLPT=3			;number of line printers 
 = 0001                      C  	CONSSW=1		;Device CONS: 
 = 0002                      C  	NMCOMT=2		;number of COMmunications ports 
 = 0001                      C  	NMPENT=1		;number of light pens 
 = 0004                      C  	NMSTRT=4		;number of joysticks 
 = 0000                      C  	GWCASS=0		;Cassette switch (CSAVE,CLOAD,MOTOR)
				 
 = 0001                      C  	IBMLIK=1		;IBM compatibility package 
 = 0001                      C  	IBMTOK=1		;IBM token compatibility 
 = 0001                      C  	DYNCOM=1		;Dynamic communication buffers 
                             C  ;** (END OF VERSION SPECIFIC VALUES) **********
				******************************* 
                             C  ;Pascal program HFILE searches for the previous
				 line - DO NOT MODIFY 
                             C  ; 
 = 0015                      C  	NUMTRP=NMKEYT+NMCOMT+NMPENT+NMSTRT 
Microsoft (R) Macro Assembler  Version 4.00                 7/13/20 11:20:05

FIVEO 5.0 Features -WHILE/WEND, CALL, CHAIN, WRITE /P. AllenPage     1-2
Common file to produce 2-segment 8086 GW-CPM BASIC          

 = 0001                      C  	GW=1			;GW BASIC 
 = 0000                      C  	ESCCTL=0		;Escape Sequence processing in SCROU
				T 
 = 0000                      C  	GWDBUG=0		;DEBUG statement (TEST VERSIONS ONLY
				) 
                             C  				; Support is in BINTRP.MAC and GWSTS.MAC 
 = 0000                      C  	SIXDIG=0		;# of digits of accuracy assumed whe
				n formatting 
                             C  				;single precision numbers for output. 
                             C  				; 0 := 7 digits 
                             C  				; 1 := 6 digits 
 = 0000                      C  	CASSW=0			;CASSETTE SWITCH 
 = 0001                      C  	LABKEY=1		;^T (LABEL) key capability 
 = 0001                      C  	HGHBIT=1		;8-bit characters (ASCII & Graphics)
				 
 = 0001                      C  	QUEUE=1			;Queued painting algorithm (vs. stac
				k) 
 = 0001                      C  	GIO86=1			;BASIC-86 Generalized I/O 
 = 0001                      C  	SCRNIO=1		;Screen editor 
 = 0001                      C  	SCRN86=1		;8086 Screen editor 
 = 0001                      C  	I8086=1			;CROSS ASSEMBLING FOR 8086 
 = 0001                      C  	MULSEG=1		;MULTI-SEGMENT 8086 BASIC 
 = 0000                      C  	SMALL=0			;"SMALL" VERSION OF 8086 BASIC IF SE
				T 
 = 0001                      C  	TRUROM=1 
 = 0000                      C  	SBC86=0			;SBC 86/02 BOARD? 
 = 0001                      C  	SHORTJ=1		;USE INTRA-SEGMENT SHORT JUMPS 
                             C  				;IN 8086 CODE 
 = 0001                      C  	LNGVAR=1		;LONG VARIABLE NAME SUPPORT (EXTENDE
				D ONLY) 
 = 0000                      C  	SHTERR=0		;SHORT (2 CHAR) ERROR MESSAGES 
 = 0000                      C  	SHTINS=0		;INSTR IN NON-FAST LEN2 VERSIONS 
 = 0000                      C  	SHTLHM=0		;LEFT HAND SIDE MID IN NON FAST LEN2
				 VERSIONS 
 = 0000                      C  	SHTCHN=0		;ALLOW CHAIN IN NON-5.0 
 = 0000                      C  	SHTPRO=0		;ALLOW PROTECTED FILES IN NON-FIVDSK
				 
 = 0000                      C  	SHTLIN=0		;ALLOW LINE INPUT IN NON-EXTENDED NO
				N-FAST 
 = 0000                      C  	SHTREN=0		;ALLOW RENUM IN NON-FST VERSIONS 
 = 0001                      C  	INKEYF=1		;ADDS INKEY$ FUNCTION 
 = 0000                      C  	NOIOS=0			;NO I/O STATMENTS (INP,OUT, WAIT) 
 = 0000                      C  	NOPEKS=0		;NO PEEK, POKE 
 = 0000                      C  	NOUSR=0			;NO USR 
 = 0000                      C  	NOCTLA=0		;NO CONTROL-A IN EXTENDED 
 = 0000                      C  	NORUBT=0		;NO RUBOUT 
 = 0000                      C  	NOROMP=0		;NO ROM PROGRAM FEATURE 
 = 0000                      C  	NOATDL=0		;NO AUTO DELETE IN NON-FAST EXTENDED
				 
 = 0000                      C  	NODOT=0			;NO DOT IN LEN2 
 = 0000                      C  	NOEDIT=0		;NO EDIT COMMAND 
 = 0000                      C  	CRONLY=0		;ONLY PUT OUT CR, NOT CRLF TO TERMIN
				AL 
                             C  				;AND FILES 
Microsoft (R) Macro Assembler  Version 4.00                 7/13/20 11:20:05

FIVEO 5.0 Features -WHILE/WEND, CALL, CHAIN, WRITE /P. AllenPage     1-3
Common file to produce 2-segment 8086 GW-CPM BASIC          

 = 0000                      C  	NONULL=0		;NO NULL COMMAND, PUT OUT NULLS IN C
				RDO & OUTCH1 
 = 0000                      C  	NOVARP=0		;NO VARPTR FUNCTION 
 = 0001                      C  	FIVEO=1			;GENERATE VERSION WITH RELEASE 5.0 F
				EATURES 
 = 0001                      C  	FIVMEM=1 
 = 0001                      C  	ANSI=1 
 = 0001                      C  	FIVDSK=1		;5.0 NEW DSK CODE 
 = 0001                      C  	FIVLPT=1		;WIDTH LPRINT AND 255 FEATURE 
 = 0001                      C  	HEXOCT=1		;&H..., HEX$, &O..., OCT$ 
 = 0000                      C  	BINCSW=0		;&B..., BIN$ 
 = 0001                      C  	BLODSW=1		;BLOAD, BSAVE COMMANDS 
 = 0001                      C  	MEMIMG=1		;MEMORY IMAGE FILES 
 = 0001                      C  	GENBIN=1 
                             C   
 = 0000                      C  	TRUANS=0		;TRUE ANSI VERSION (STATIC SCAN, ON 
				ERROR) 
 = 0000                      C  	COMMNT=0		;DONT WANT BIG COMMENT 
 = 0000                      C  	INTEL=0			;INTEL PROPRIETARY 
 = 0000                      C  	INTFSW=0		;INTEL FLOATING POINT 
 = 0000                      C  	INTFHW=0 
 = 0000                      C  	RMX=0			;INTEL RMX VERSION 
 = 0000                      C  	EDIT80=0		;FOR EDIT80 I/O ROUTINES 
 = 0000                      C  	RSHACK=0 
 = 0000                      C  	INTLEC=0 
 = 0002                      C  	LENGTH=2		;  1 MEANS 8K, 2 MEANS 12K 
 = 0000                      C  	BASDEB=0		;WHETHER DBG WILL BE LOADED WITH BAS
				IC 
 = 0001                      C  	RSTLES=1		;WHETHER BASIC WILL USE RST LOCATION
				S 
                             C  				;TO MAKE ITSELF SMALLER & QUICKER 
 = 0001                      C  	REALIO=1		;WHETHER SIMULATE (=0) OR ON MACHINE
				 (=1) 
 = 0001                      C  	GENIO=1			;USE G/P ROUTINES 
 = 0001                      C  	CHSEAT=1		;CHSNS eats chars 
 = 0000                      C  	GENDSK=0		;USE G/P DSK CODE 
 = 0000                      C  	LONGI=0			;WHETHER WE ASK "TERMINAL WIDTH?" 
                             C  				;AND WANT SIN-TAN-COS-ATN? 
 = 0000                      C  	INSTSW=0		;FOR INSTR INSTRUCTION 
 = 0001                      C  	SWAPSW=1		;FOR SWAP STATEMENT 
 = 0000                      C  	MDS=0			;FOR INTEL MDS SYSTEMS 
 = 0000                      C  	SBC=0			;FOR INTEL SINGLE BOARD COMPUTER 
                             C  				;1=SBC 80/10, 2=SBC 80/20 
 = 0001                      C  	PURE=1			;ON FOR PURE CODE 
 = 0000                      C  	KILLER=0		;FOR ROM VERSION THAT WONT RUN IN RA
				M 
 = 0000                      C  	INTROM=0 
 = 0001                      C  	LPTSW=1 
 = 0001                      C  	NCRLPT=1 
 = 0000                      C  	NCRCAS=0 
 = 0000                      C  	ISC=0			;FOR ISC VERSION 
 = 0000                      C  	LPT3=0			;THREE LPT DRIVER VERSION(QUME,OKIA,C
				ENT) 
 = 0000                      C  	TSLPT=0 
Microsoft (R) Macro Assembler  Version 4.00                 7/13/20 11:20:05

FIVEO 5.0 Features -WHILE/WEND, CALL, CHAIN, WRITE /P. AllenPage     1-4
Common file to produce 2-segment 8086 GW-CPM BASIC          

                             C   
 = 0000                      C  	DOS=0			;ON TO GEN ROUTINES FOR DOS 
 = 0001                      C  	DISK=1			;FILE I/O FEATURES 
 = 0000                      C  	TIMSHR=0		;NO TIME-SHARING DISK 
 = 0000                      C  	TSDISK=0		;NO TIME-SHARING DISK FOR US 
 = 0000                      C  	SPCDSK=0		;MAY HAVE MM'S DISK CODE 
 = 0000                      C  	SPCNDS=0 
 = 0001                      C  	FAST=1			;CONSTANT COMPRESSION, RENUM & FRIEND
				S 
 = 0000                      C  	KEYSTA=0 
 = 0000                      C  	ISIS=0			;FOR VERSION TO RUN UNDER INTEL'S ISI
				S II DOS 
 = 0000                      C  	MDSISS=0		;FOR MDS VERSION THAT RUNS UNDER ISI
				S-II 
 = 0001                      C  	CPM=1			;FOR CPM compatible operating systems 
 = 0001                      C  	CPM2=1			;VERSION 2. CPM 
 = 0000                      C  	CPM86=0			;FOR CP/M-86 operating system 
 = 0001                      C  	SCP=1			;MS-DOS operating system 
 = 0000                      C  	CPMCON=0 
 = 0000                      C  	CPMSER=0		;CHECK CPM SERIAL #'S 
 = 0000                      C  	CPMADD=0		;FOR VERSION TO RUN ON ADDS CPM 
 = 0000                      C  	CPMA75=0		;FOR VERSION TO RUN ON ADDS SYSTEM 7
				5 
                             C  				;CP/M 
 = 0000                      C  	CPMRSH=0		;FOR RADIO SHACK CPM/M 
 = 0000                      C  	CPM110=0		;FOR CP/M @1100 HEX (INTERALIA) 
 = 0000                      C  	CPMSBC=0		;FOR VERSION TO RUN ON SBC CP/M AT 4
				100H 
 = 0000                      C  	CPMPER=0		;FOR PERTEC VERSION OF CPM 
 = 0000                      C  	CPMLIF=0		;LIFEBOAT CP/M AT 4200H 
 = 0000                      C  	CPMMDS=0		;MOHAWK DATA SYSTEMS CP/M 
 = 0000                      C  	CPMCON=0 
 = 0000                      C  	Z80=0 
 = 0001                      C  	DISK=1 
 = 0001                      C  	NCRLPT=1 
 = 0001                      C  	RSTLES=1 
 = 0000                      C  	DRVPOS=CPMADD 
 = 0000                      C  	TRNCHR=CPMADD 
 = 0000                      C  	INLADD=CPMADD 
 = 0001                      C  	LISTEN=1		;ON MEANS LISTEN FOR ^C 
 = 0001                      C  	LISTEN=1 
 = 0000                      C  	LEN2=0 
 = 0001                      C  	LEN2=1 
 = 0001                      C  	HEXOCT=1 
 = 0002                      C  	LENGTH=2 
 = 0001                      C  	RSTLES=1 
 = 0001                      C  	FIVLPT=1 
 = 0000                      C  	I8251=0			;THIS SWITCH IS USED FOR ROSEMOUNT V
				ERSION 
 = 0001                      C  	CONTRO=1		;ALLOW ^O 
 = 0001                      C  	LEN3=LEN2 OR CASSW 
                             C   
                             C   
                             C   
Microsoft (R) Macro Assembler  Version 4.00                 7/13/20 11:20:05

FIVEO 5.0 Features -WHILE/WEND, CALL, CHAIN, WRITE /P. AllenPage     1-5
Common file to produce 2-segment 8086 GW-CPM BASIC          

 = 0001                      C  	STRING=1 
 = 0001                      C  	NCRLPT=1 
                             C   
                             C  ; *** OEM Switches which need to be defaulted t
				o 0 
                             C  ; 
 = 0000                      C  	CMPUTN=0 
 = 0000                      C  	DUPONT=0 
 = 0000                      C  	EXIDY=0 
 = 0000                      C  	GESBC=0 
 = 0000                      C  	HEATH=0 
 = 0000                      C  	LOKHED=0 
 = 0000                      C  	MOSTEK=0 
 = 0000                      C  	TEK=0 
 = 0000                      C  	TRSER2=0 
 = 0000                      C  	NASCOM=0 
 = 0000                      C  	NATROM=0 
 = 0000                      C  	NCRBAS=0 
 = 0000                      C  	NCRDEB=0 
 = 0000                      C  	NCRDEB=0 
 = 0000                      C  	NCRELS=0 
 = 0000                      C  	ONTEL=0 
 = 0000                      C  	PCS=0 
 = 0000                      C  	SGSATS=0 
 = 0000                      C  	ALTAIR=0 
 = 0000                      C  	DMC=0 
 = 0000                      C  	PANBAS=0 
 = 0000                      C  	XTNSYS=0 
 = 0000                      C  	NECBAS=0 
                             C  ;**********************************************
				********************* 
                             C  ; Z80 related macros 
                             C  ;**********************************************
				********************* 
 = 0001                      C  	Z80=1			;FOR VERSION THAT RUNS ON BOTH 
                             C  				;8080'S AND ZILOG Z-80'S 
 = 0001                      C  	Z80MAC=1		;USE 8080 MACROS INSTEAD OF Z80 INST
				RUCTIONS 
 = 0000                      C  	Z80=0 
 = 0001                      C  	Z80=1 
                             C  LDIR	MACRO 
                             C  	MOV	WORD PTR A,WORD PTR M 
                             C  	STAX	D 
                             C  	INXF	H 
                             C  	INXF	D 
                             C  	DCXF	B 
                             C  	MOV	WORD PTR A,WORD PTR B 
                             C  	ORA	C 
                             C  	JNZ	_-8D 
                             C  ENDM 
                             C  LDDR	MACRO 
                             C  	MOV	WORD PTR A,WORD PTR M 
                             C  	STAX	D 
                             C  	DCXF	H 
Microsoft (R) Macro Assembler  Version 4.00                 7/13/20 11:20:05

FIVEO 5.0 Features -WHILE/WEND, CALL, CHAIN, WRITE /P. AllenPage     1-6
Common file to produce 2-segment 8086 GW-CPM BASIC          

                             C  	DCXF	D 
                             C  	DCXF	B 
                             C  	MOV	WORD PTR A,WORD PTR B 
                             C  	ORA	C 
                             C  	JNZ	_-8D 
                             C  ENDM 
                             C  DJNZ	MACRO	    DEST 
                             C  	DCR	B 
                             C  	JNZ	DEST 
                             C  ENDM 
                             C  ;**********************************************
				********************* 
                             C  ; Define reset routines. 
                             C  ;**********************************************
				********************* 
                             C  FSIGN	MACRO 
                             C  	CALL	SIGN 
                             C  ENDM 
                             C  PUSHM	MACRO 
                             C  	MOV	WORD PTR C,WORD PTR M 
                             C  	INX	H 
                             C  	MOV	WORD PTR B,WORD PTR M 
                             C  	INX	H 
                             C  	PUSH	WORD PTR B 
                             C  ENDM 
                             C  SYNCHK	MACRO	X 
                             C  	CALL	SYNCHR 
                             C  	DB	OFFSET X 
                             C  ENDM 
                             C  OUTCHR	MACRO 
                             C  	CALL	OUTDO 
                             C  ENDM 
                             C  CHRGET	MACRO 
                             C  	CALL	CHRGTR 
                             C  ENDM 
                             C  COMPAR	MACRO 
                             C  	CALL	DCOMPR 
                             C  ENDM 
                             C  GETYPE	MACRO 
                             C  	CALL	GETYPR 
                             C  ENDM 
                             C  COMPAR	MACRO 
                             C  	DB	73O 
                             C  	DB	332O 
                             C   ENDM 
                             C  ACRLF	MACRO 
                             C  	DB	13D 
                             C  	DB	10D 
                             C  ENDM 
                             C  PUSHR	MACRO 
                             C  	PUSH	WORD PTR D 
                             C  	PUSH	WORD PTR B 
                             C  ENDM 
                             C  POPR	MACRO 
Microsoft (R) Macro Assembler  Version 4.00                 7/13/20 11:20:05

FIVEO 5.0 Features -WHILE/WEND, CALL, CHAIN, WRITE /P. AllenPage     1-7
Common file to produce 2-segment 8086 GW-CPM BASIC          

                             C  	POP	WORD PTR B 
                             C  	POP	WORD PTR D 
                             C  ENDM 
                             C  MOVRI	MACRO	B,C,D,E 
                             C  	DB	1O		; "LXI  B" 
                             C  	DB	OFFSET C 
                             C  	DB	OFFSET B 
                             C  	DB	21O		; "LXI  D" 
                             C  	DB	OFFSET E 
                             C  	DB	OFFSET D 
                             C  ENDM 
                             C  INST	MACRO	X 
                             C  	DB	OX 
                             C  ENDM 
                             C   
                             C   
 = 000F                      C  	CONTO=15		;CHARACTER TO SUPRESS OUTPUT (USUALL
				Y CONTROL-O) 
 = 0000                      C  	DBLTRN=0		;FOR DOUBLE PRECISION TRANSCENDENTAL
				S 
                             C   
 = 000E                      C  	CLMWID=14D		;MAKE COMMA COLUMNS FOURTEEN CHARA
				CTERS 
 = 0080                      C  	DATPSC=128D		;NUMBER OF DATA BYTES IN DISK SEC
				TOR 
 = 0050                      C  	LINLN=80D		;TERMINAL LINE LENGTH 
 = 0084                      C  	LPTLEN=132D 
 = 00FF                      C  	BUFLEN=255		;LONG LINES 
 = 0028                      C  	NAMLEN=40D		;MAXIMUM LENGTH NAME -- 3 TO 127 
                             C   
 = 006E                      C  	NUMLEV=110D		;NUMBER OF STACK LEVELS RESERVED 
                             C  				;BY AN EXPLICIT CALL TO GETSTK 
 = 0004                      C  	STRSIZ=4 
 = 0003                      C  	STRSIZ=3 
 = 0003                      C  	NUMTMP=3		;NUMBER OF STRING TEMPORARIES 
 = 000A                      C  	NUMTMP=10 
                             C   
 0008                        C  	.RADIX	8 
                             C  ; 
                             C  ; Useful macros 
                             C  ; 
                             C   
                             C  ACRLF   MACRO 
                             C          DB      13D 
                             C          DB      10D 
                             C  ENDM 
                             C   
                             C  INS86   MACRO   A,B,C,D 
                             C          DB      A&O 
                             C  IFNB    <B> 
                             C          DB      B&O 
                             C  ENDIF 
                             C  IFNB    <D> 
                             C          DB      C&O 
Microsoft (R) Macro Assembler  Version 4.00                 7/13/20 11:20:05

FIVEO 5.0 Features -WHILE/WEND, CALL, CHAIN, WRITE /P. AllenPage     1-8
Common file to produce 2-segment 8086 GW-CPM BASIC          

                             C          DB      D&O 
                             C  ENDIF 
                             C  IFB     <D> 
                             C   IFNB   <C> 
                             C          DW      C 
                             C    ENDIF 
                             C   ENDIF 
                             C  ENDM 
                             C   
                             C  CALLOS  MACRO 
                             C          CALL    CPMENT 
                             C  ENDM 
                             C   
                             C  POPR    MACRO 
                             C          POP     CX 
                             C          POP     DX 
                             C  ENDM 
                             C   
                             C  ADR     MACRO   X 
                             C          DW      X 
                             C  ENDM 
                             C   
                             C  DC      MACRO   ARG 
                             C          IRPC    ZZ,<ARG> 
                             C              IFDIF       <ZZ>,<">
                             C                  DB      "&ZZ&" 
                             C                  _A="&ZZ&" 
                             C              ENDIF 
                             C          ENDM 
                             C  ENDM 
                             C  ; 
Microsoft (R) Macro Assembler  Version 4.00                 7/13/20 11:20:05

FIVEO 5.0 Features -WHILE/WEND, CALL, CHAIN, WRITE /P. AllenPage     1-9
Common file to produce 2-segment 8086 GW-CPM BASIC          

                             C          PAGE 
                             C   
                                 
                                 
                                	TITLE FIVEO 5.0 Features -WHILE/WEND, CALL, CH
				AIN, WRITE /P. Allen 
                                 
                                	.SALL 
 000A                           	.RADIX	10 
                                 
 = 0000                         TSHIBA=0 
 = 0000                         PC8A=0 
 = 0000                         	LABEL=PC8A 
 = 0000                         OKI=0 
                             C  	INCLUDE	GIO86U.INC 
                             C  ; [ This translation created 12-Jan-83 by Versi
				on 4.3 ] 
                             C   
                             C  	SUBTTL GIO86U - Device Independent I/O Constan
				ts and Macros 
                             C   
                             C  COMMENT	* 
                             C   
                             C  --------- --- ---- -- --------- 
                             C  COPYRIGHT (C) 1982 BY MICROSOFT 
                             C  --------- --- ---- -- --------- 
                             C   
                             C          Programmer: Tom Corbett,  Microsoft Inc
				. 
                             C   
                             C          * 
                             C   
                             C  ROFFST	MACRO	NAME,SIZE	;define record macro 
                             C  	NAME=_OFFST 
                             C  	_OFFST=_OFFST+SIZE 
                             C  ENDM  
                             C   
                             C   
                             C  ;ASCII character definitions 
                             C  ; 
 = 0003                      C  	ASCCTC=3D		;CTL-C 
 = 0008                      C  	ASCBS=8D		;backspace 
 = 0009                      C  	ASCTAB=9D		;Tab 
 = 000A                      C  	ASCLF=10D		;Line Feed 
 = 000D                      C  	ASCCR=13D		;Carriage Return 
 = 0013                      C  	ASCCTS=19D		;CTL-S 
 = 001A                      C  	ASCCTZ=26D		;Control Z (End-of-file for some d
				evices) 
 = 001B                      C  	ASCESC=27D		;Escape 
 = 0020                      C  	ASCSPC=32D		;Space 
                             C   
                             C  ;Special File ID's (identified by 1st byte of f
				ile) 
                             C  ; 
Microsoft (R) Macro Assembler  Version 4.00                 7/13/20 11:20:05

FIVEO 5.0 Features -WHILE/WEND, CALL, CHAIN, WRITE /P. AllenPage     1-10
GIO86U - Device Independent I/O Constants and Macros        

 = 00FF                      C  	BINFID=255D		;files created by SAVE "fn" 
 = 00FE                      C  	PROFID=254D		;files created by SAVE "fn",P 
 = 00FD                      C  	BSVFID=253D		;files created by BSAVE "fn" 
                             C   
                             C  ;Generalized I/O Function Codes: 
                             C  ; 
 = 0000                      C  	_OFFST=0		;initialize count 
                             C  	ROFFST	G_EOF,2		;test EOF for file opened to t
				his device 
                             C  	ROFFST	G_LOC,2		;LOC 
                             C  	ROFFST	G_LOF,2		;LOF 
                             C  	ROFFST	G_CLS,2		;perform special CLOSE functio
				ns for this device 
                             C  	ROFFST	G_SWD,2		;set device width 
                             C  	ROFFST	G_RND,2		;GET/PUT random record from/to
				 this device 
                             C  	ROFFST	G_OPN,2		;perform special OPEN function
				s for this device 
                             C  	ROFFST	G_SIN,2		;input 1 byte from file opened
				 on this device 
                             C  	ROFFST	G_SOT,2		;output 1 byte to file opened 
				on this device 
                             C  	ROFFST	G_GPS,2		;POS 
                             C  	ROFFST	G_GWD,2		;get device width 
                             C  	ROFFST	G_SCW,2		;set device column width 
                             C  	ROFFST	G_GCW,2		;get device column width 
                             C  	ROFFST	G_BIN,2		;block input from file opened 
				on this device 
                             C  	ROFFST	G_BOT,2		;block output to file opened o
				n this device 
                             C   
                             C   
Microsoft (R) Macro Assembler  Version 4.00                 7/13/20 11:20:05

FIVEO 5.0 Features -WHILE/WEND, CALL, CHAIN, WRITE /P. AllenPage     1-11
GIO86U - Device Independent I/O Constants and Macros        

                             C          PAGE 
                                 
                             C  	INCLUDE	MSDOSU.INC 
                             C  ; [ This translation created 12-Jan-83 by Versi
				on 4.3 ] 
                             C   
                             C  	SUBTTL    MSDOSU - MS-DOS Constants and Data-S
				tructure Definitions 
                             C   
                             C  COMMENT	* 
                             C   
                             C  --------- --- ---- -- --------- 
                             C  COPYRIGHT (C) 1982 BY MICROSOFT 
                             C  --------- --- ---- -- --------- 
                             C   
                             C  	Programmer: Tom Corbett,  Microsoft Inc. 
                             C   
                             C  	* 
                             C   
                             C  CALLOS	MACRO	FUNC 
                             C  IFNB	<FUNC>   
                             C  	MOV	AH,LOW OFFSET FUNC 
                             C  ENDIF  
                             C  	INT	33D		;MSDOS system call 
                             C  ENDM  
                             C   
                             C  ROFFST	MACRO	NAME,SIZE	;define record macro 
                             C  	NAME=_OFFST 
                             C  	_OFFST=_OFFST+SIZE 
                             C  ENDM  
                             C   
                             C   
                             C  ; MSDOS System Call codes 
                             C  ; 
 = 0005                      C  	C_PRTO=5D		;Printer output 
 = 0006                      C  	C_DCIO=6D		;Direct console I/O 
 = 000D                      C  	C_REST=13D		;INITIALIZE BDOS 
 = 000E                      C  	C_SDRV=14D		;SET CURRENTLY SELECTED DRIVE 
 = 000F                      C  	C_OPEN=15D 
 = 0010                      C  	C_CLOS=16D 
 = 0011                      C  	C_SEAR=17D		;SEARCH FOR FILE 
 = 0013                      C  	C_DELE=19D 
 = 0014                      C  	C_READ=20D 
 = 0016                      C  	C_MAKE=22D 
 = 0017                      C  	C_RENA=23D 
 = 0019                      C  	C_GDRV=25D		;GET CURRENTLY SELECTED DRIVE 
 = 001A                      C  	C_BUFF=26D		;SET DMA ADDRESS 
 = 0021                      C  	C_RNDR=33D		;Random read 
 = 0022                      C  	C_RNDW=34D		;Random write 
 = 0027                      C  	C_RBR=39D		;Random Block Read 
 = 0029                      C  	C_PARS=41D		;Parse Filename 
                             C   
 = 000B                      C  	FNAML=11D		;number of bytes in Filename with e
				xtension 
Microsoft (R) Macro Assembler  Version 4.00                 7/13/20 11:20:05

FIVEO 5.0 Features -WHILE/WEND, CALL, CHAIN, WRITE /P. AllenPage     1-12
MSDOSU - MS-DOS Constants and Data-Structure Definitions    

 = 0080                      C  	DATPSC=128D		;bytes per sector 
 = 0026                      C  	FCBSIZ=38D		;File Control Block size 
                             C   
                             C  ;MS-DOS FILE-DATA-BLOCK Record Definition 
                             C  ; 
 = 0000                      C  	_OFFST=0		;initialize count 
                             C  	ROFFST	F_NUL1,1	;not used by basic interpreter
				 
                             C  	ROFFST	F_NUM,1		;file number 0..255 
                             C  	ROFFST	F_NUL2,2	;not used by basic interpreter
				 
                             C  	ROFFST	F_NEXT,2	;thread for linked list, [MEMS
				IZ]=end 
                             C  	ROFFST	F_MODE,1	;file mode: 
 = 0001                      C  	MD_SQI=1D		;sequential input 
 = 0002                      C  	MD_SQO=2D		;sequential output 
 = 0004                      C  	MD_RND=4D		;random 
 = 0008                      C  	MD_APP=8D		;append 
                             C  	ROFFST	F_FCB,FCBSIZ	;File Control Block: used 
				to communicate with OS 
                             C  	ROFFST	F_CLOC,2	;for seq files: num sectors re
				ad/written   (LOCOFS) 
                             C  				;for rnd files: last record number + 1 
                             C  	ROFFST	F_ORCT,1	;"Original Byte Count"        
				             (ORNOFS) 
                             C  				;for seq input: #bytes in sector when read 
                             C  				;for seq output: #bytes in output sector 
                             C  				;for random files: bytes per sector 
                             C  	ROFFST	F_BREM,1	;number of bytes till end-of-b
				uffer        (NMLOFS) 
                             C  	ROFFST	F_CODE,1	;file encoding: 
 = 0000                      C  	FC_ASC=0		;Ascii SAVE, Data files 
 = 0001                      C  	FC_BIN=1		;binary file (BSAVE, binary SAVE) 
                             C  	ROFFST	F_BAKC,1	;holds next sequential input w
				hen F.FLBS.FL.BKC is true 
                             C  	ROFFST	F_NUL3,1	;not used by basic interpreter
				 
                             C  	ROFFST	F_DEV,1		;Device number                
				             (FL.DSK) 
                             C  	ROFFST	F_WID,1		;File width 
                             C  	ROFFST	F_NUL4,1	;not used by basic interpreter
				 
                             C  	ROFFST	F_FLGS,1	;flags 
 = 0080                      C  	FL_BKC=200O		;when true, F.BAKC contains next 
				sequential input 
                             C  	ROFFST	F_POS,1		;Current column position      
				             (FL.OPS) 
                             C  	ROFFST	FDBSIZ,0	;size of device independent pa
				rt of FDB 
                             C  				;device dependant FDB entries start here 
                             C   
                             C  	ROFFST	DATOFS,DATPSC	;Operating System interfa
				ce buffer 
                             C  	ROFFST	FD_SIZ,2	;variable record length for ra
Microsoft (R) Macro Assembler  Version 4.00                 7/13/20 11:20:05

FIVEO 5.0 Features -WHILE/WEND, CALL, CHAIN, WRITE /P. AllenPage     1-13
MSDOSU - MS-DOS Constants and Data-Structure Definitions    

				ndom files 
                             C  	ROFFST	FD_PHY,2	;current physical record numbe
				r 
                             C  	ROFFST	FD_LOG,2	;current logical record number
				 
                             C  	ROFFST	F_NUL5,1	;Future use 
                             C  	ROFFST	FD_OPS,2	;current output position for s
				equential I/O 
                             C  	ROFFST	FD_DAT,0	;field buffer of random file 
                             C   
                             C  ; OFFSETS INTO MSDOS FCB 
                             C  ; 
 = 0007                      C  	FCB_DV=F_FCB+0D		;DRIVE (0=default, 1=A:, 2=B:
				, ...) 
 = 0008                      C  	FCB_FN=F_FCB+1D		;FILE NAME 
 = 0010                      C  	FCB_FT=F_FCB+9D		;EXTENSION 
 = 0013                      C  	FCB_EX=F_FCB+12D	;FILE EXTENT (identifies bloc
				k of 128 logical records) 
 = 0015                      C  	FCB_RC=F_FCB+14D	;RECORD SIZE 
 = 0017                      C  	FCB_FS=F_FCB+16D	;FILE SIZE IN BYTES 
 = 001B                      C  	FCB_DT=F_FCB+20D	;Date of last write to file 
 = 001D                      C  	FCB_DT=F_FCB+22D	;Time of last write to file 
 = 0027                      C  	FCB_NR=F_FCB+32D	;NEXT RECORD NUMBER 
 = 0028                      C  	FCB_RN=F_FCB+33D	;CP/M 2.x Random Record Numbe
				r 
                             C   
Microsoft (R) Macro Assembler  Version 4.00                 7/13/20 11:20:05

FIVEO 5.0 Features -WHILE/WEND, CALL, CHAIN, WRITE /P. AllenPage     1-14
MSDOSU - MS-DOS Constants and Data-Structure Definitions    

                             C          PAGE 
                                 
                                ENDIF 
                                 
                                	EXTRN	RESTORE:NEAR 
 0000                           DSEG	SEGMENT PUBLIC 'DATASG' 
                                	ASSUME DS:DSEG 
                                	EXTRN	SUBFLG:WORD,TEMP:WORD 
 0000                           DSEG	ENDS 
                                 
                                				; Code Segment ( terminated by END at botto
				m of file ) 
                                 
                                	EXTRN	CHRGTR:NEAR,SYNCHR:NEAR,DCOMPR:NEAR 
                                	EXTRN	GETYPR:NEAR 
                                	EXTRN	SNERR:NEAR,GETSTK:NEAR,PTRGET:NEAR,CRDO:
				NEAR 
                                	EXTRN	VMOVFM:NEAR 
                                	EXTRN	FRQINT:NEAR 
                                 
                                	SUBTTL  WHILE , WEND 
                                	PUBLIC	WHILE,WEND 
                                	EXTRN	ERROR:NEAR,FRMCHK:NEAR,$FOR:NEAR,$WHILE:
				NEAR,WNDSCN:NEAR 
                                	EXTRN	FRMEVL:NEAR 
                                	EXTRN	NEWSTT:NEAR,FORSZC:NEAR,ERRWE:NEAR 
 0000                           DSEG	SEGMENT PUBLIC 'DATASG' 
                                	EXTRN	SAVSTK:WORD,NXTLIN:WORD,CURLIN:WORD,ENDF
				OR:WORD 
 0000                           DSEG	ENDS 
                                ; 
                                ; THIS CODE HANDLES THE STATEMENTS WHILE/WEND 
                                ; THE 8080 STACK IS USED TO PUT AN ENTRY ON FOR
				 EACH ACTIVE WHILE 
                                ; THE SAME WAY ACTIVE GOSUB AND FOR ENTRIES ARE
				 MADE. 
                                ; THE FORMAT IS AS FOLLOWS: 
                                ;       $WHILE - THE TOKEN IDENTIFYING THE ENTR
				Y (1 BYTE) 
                                ;       A TEXT POINTER AT THE CHARACTER AFTER T
				HE WEND OF THE WHILE BODY (2 BYTES) 
                                ;       A TEXT POINTER AT THE CHARACTER AFTER T
				HE WHILE OF THE WHILE BODY (2 BYTES) 
                                ;       THE LINE NUMBER OF THE LINE THAT THE WH
				ILE IS ON (2 BYTES) 
                                ; 
                                ;       TOTAL   7 BYTES 
                                ; 
 0000                           WHILE:				;KEEP THE WHILE TEXT POINTER HERE 
 0000  89 1E 0000 E             	MOV	ENDFOR,BX	;SAVE TEXT ADDRESS 
 0004  E8 0000 E                	CALL	WNDSCN		;SCAN FOR THE MATCHING WEND 
                                				;CAUSE AN ERRWH IF NO WEND TO MATCH 
 0007  E8 0000 E                	CALL	CHRGTR		;POINT AT CHARACTWER AFTER WEND 
 000A  87 DA                    	XCHG	BX,DX		;POSITION OF MATCHING WEND 
Microsoft (R) Macro Assembler  Version 4.00                 7/13/20 11:20:05

FIVEO 5.0 Features -WHILE/WEND, CALL, CHAIN, WRITE /P. AllenPage     1-15
WHILE , WEND                                                

 000C  E8 0075 R                	CALL	FNDWND		;SEE IF THERE IS A STACK ENTRY FO
				R THIS WHILE 
 000F  9F                       	LAHF 
 0010  44                       	INC	SP		;GET RID OF THE NEWSTT ADDRESS ON THE 
				STACK 
 0011  9E                       	SAHF 
 0012  9F                       	LAHF 
 0013  44                       	INC	SP 
 0014  9E                       	SAHF 
 0015  75 08                    	JNZ	SHORT WNOTOL	;IF NO MATCH NO NEED TO TRUNC
				ATE THE STACK 
 0017  03 D9                    	ADD	BX,CX		;ELIMINATE EVERYTHING UP TO AND INC
				LUDING 
                                				;THE MATCHING WHILE ENTRY 
 0019  8B E3                    	MOV	SP,BX 
 001B  89 1E 0000 E             	MOV	SAVSTK,BX 
 001F  8B 1E 0000 E             WNOTOL:	MOV	BX,CURLIN	;MAKE THE STACK ENTRY 
 0023  53                       	PUSH	BX 
 0024  8B 1E 0000 E             	MOV	BX,ENDFOR	;GET TEXT POINTER FOR WHILE BACK
				 
 0028  53                       	PUSH	BX 
 0029  52                       	PUSH	DX		;SAVE THE WEND TEXT POINTER 
 002A  EB 28                    	JMP	SHORT FNWEND	;FINISH USING WEND CODE 
                                 
 002C  74 03                    WEND:	JZ	SHORT ??L000 
 002E  E9 0000 E                	JMP	SNERR		;STATEMENT HAS NO ARGUMENTS 
 0031                           ??L000: 
 0031  87 DA                    	XCHG	BX,DX		;FIND MATCHING WHILE ENTRY ON STAC
				K 
 0033  E8 0075 R                	CALL	FNDWND 
 0036  75 68                    	JNZ	SHORT WEERR	;MUST MATCH OR ELSE ERROR 
 0038  8B E3                    	MOV	SP,BX		;TRUNCATE STACK AT MATCH POINT 
 003A  89 1E 0000 E             	MOV	SAVSTK,BX	;[H,L] POINTING INTO STACK ENTRY
				 
 003E  8B 16 0000 E             	MOV	DX,CURLIN	;REMEMBER WEND LINE # 
 0042  89 16 0000 E             	MOV	NXTLIN,DX	;IN NXTLIN 
 0046  43                       	INC	BX		;INDEX INTO STACK ENTRY TO GET VALUES 
 0047  43                       	INC	BX		;SKIP OVER TEXT POINTER OF WEND 
 0048  8B 17                    	MOV	DX,[BX]		;SET [D,E]=TEXT POINTER OF WHILE 
 004A  43                       	INC	BX 
 004B  43                       	INC	BX 
 004C  8B 1F                    	MOV	BX,[BX]		;[H,L]=LINE NUMBER OF WHILE 
 004E  89 1E 0000 E             	MOV	CURLIN,BX	;IN CASE OF ERROR OR CONTINUATIO
				N FIX CURLIN 
 0052  87 DA                    	XCHG	BX,DX		;GET TEXT POINTER OF WHILE FORMULA
				 INTO [H,L] 
 0054  E8 0000 E                FNWEND:	CALL	FRMEVL		;EVALUATE FORMULA 
                                	EXTRN	VSIGN:NEAR 
 0057  53                       	PUSH	BX		;SAVE TEXT POINTER 
 0058  E8 0000 E                	CALL	VSIGN		;GET IF TRUE OR FALSE 
 005B  5B                       	POP	BX		;GET BACK WHILE TEXT POINTER 
 005C  74 09                    	JZ	SHORT FLSWHL	;GO BACK AT WEND IF FALSE 
 005E  B9 0000 E                	MOV	CX,OFFSET $WHILE	;COMPLETE WHILE ENTRY 
 0061  8A E9                    	MOV	CH,CL		;NEED IT IN THE HIGH BYTE 
Microsoft (R) Macro Assembler  Version 4.00                 7/13/20 11:20:05

FIVEO 5.0 Features -WHILE/WEND, CALL, CHAIN, WRITE /P. AllenPage     1-16
WHILE , WEND                                                

 0063  51                       	PUSH	CX 
 0064  E9 0000 E                	JMP	NEWSTT 
                                 
 0067  8B 1E 0000 E             FLSWHL:	MOV	BX,NXTLIN	;SETUP CURLIN FOR WEND 
 006B  89 1E 0000 E             	MOV	CURLIN,BX 
 006F  5B                       	POP	BX		;TAKE OFF TEXT OF WEND AS NEW TEXT POI
				NTER 
 0070  59                       	POP	CX		;GET RID OF TEXT POINTER OF WHILE 
 0071  59                       	POP	CX		;TAKE OFF LINE NUMBER OF WHILE 
 0072  E9 0000 E                	JMP	NEWSTT 
                                ; 
                                ; THIS SUBROUTINE SEARCHES THE STACK FOR AN WHI
				LE ENTRY 
                                ; WHOSE WEND TEXT POINTER MATCHES [D,E]. IT RET
				URNS WITH ZERO TRUE 
                                ; IF A MATCH IS FOUND AND ZERO FALSE OTHERWISE.
				 FOR ENTRIES 
                                ; ARE SKIPPED OVER, BUT GOSUB ENTRIES ARE NOT. 
                                ; 
 = 0007                         	WHLSIZ=7 
                                 
                                 
                                ; 
                                ; Note - 8086 versions force stack entries to b
				e an even length 
                                ; so stack accesses won't cross word boundaries
				.  This is done 
                                ; for speed.  To accomplish this, an extra byte
				 is pushed on 
                                ; top of the WHILE token.  This extra byte is N
				OT reflected in 
                                ; the value of WHLSIZ but is taken care of by t
				he code. 
                                ; 
                                 
 0075  BB 0004                  FNDWND:	MOV	BX,4		;SKIP OVER RETURN ADDRESS AND
				 NEWSTT 
 0078  03 DC                    	ADD	BX,SP 
 007A                           FNDWN2: 
 007A  43                       	INC	BX 
 007B  8A 07                    	MOV	AL,BYTE PTR [BX]	;GET THE ENTRY TYPE 
 007D  43                       	INC	BX 
 007E  B9 0000 E                	MOV	CX,OFFSET $FOR 
 0081  3A C1                    	CMP	AL,CL		;SEE IF ITS $FOR 
 0083  75 07                    	JNZ	SHORT FNDWN3 
 0085  B9 FFFF E                	MOV	CX,OFFSET FORSZC-1	;Yes, so skip over it. 
				 Note that 
 0088  03 D9                    	ADD	BX,CX		;the pointer has already been 
 008A  EB EE                    	JMP	SHORT FNDWN2	;incremented once. 
                                 
 008C  B9 0000 E                FNDWN3:	MOV	CX,OFFSET $WHILE 
 008F  3A C1                    	CMP	AL,CL 
 0091  74 01                    	JZ	SHORT $+3 
 0093  C3                       	RET 
Microsoft (R) Macro Assembler  Version 4.00                 7/13/20 11:20:05

FIVEO 5.0 Features -WHILE/WEND, CALL, CHAIN, WRITE /P. AllenPage     1-17
WHILE , WEND                                                

                                	INS86	71,27		;CMP [BX],DX-SAME WEND? 
 0096  B9 0006                  	MOV	CX,OFFSET WHLSIZ-1	;Note that the pointer 
				has 
                                				;already been incremented once. 
 0099  75 01                    	JNZ	SHORT $+3 
 009B  C3                       	RET			;RETURN IF ENTRY MATCHES 
 009C  03 D9                    	ADD	BX,CX 
 009E  EB DA                    	JMP	SHORT FNDWN2 
                                 
 00A0  BA 0000 E                WEERR:	MOV	DX,OFFSET ERRWE 
 00A3  E9 0000 E                	JMP	ERROR 
                                 
                                 
                                	SUBTTL  CHAIN 
 0000                           DSEG	SEGMENT PUBLIC 'DATASG' 
                                	EXTRN	TXTTAB:WORD,VALTYP:WORD 
 0000                           DSEG	ENDS 
                                	EXTRN	$COMMON:NEAR,$MERGE:NEAR,FRMEVL:NEAR,OME
				RR:NEAR,SCRTCH:NEAR 
                                	EXTRN	LINGET:NEAR 
                                	EXTRN	$DELETE:NEAR 
                                	PUBLIC	CHAIN,COMMON 
                                	EXTRN	PTRGTN:NEAR,PTRGTR:NEAR 
                                	EXTRN	MOVE1:NEAR,NEWSTT:NEAR,PTRGET:NEAR,STRCP
				Y:NEAR 
                                	EXTRN	GARBA2:NEAR 
 0000                           DSEG	SEGMENT PUBLIC 'DATASG' 
                                	EXTRN	FRETOP:WORD 
 0000                           DSEG	ENDS 
                                ; 
                                ; 
 0000                           DSEG	SEGMENT PUBLIC 'DATASG' 
                                	EXTRN	SAVFRE:WORD 
 0000                           DSEG	ENDS 
                                	EXTRN	IADAHL:NEAR 
 0000                           DSEG	SEGMENT PUBLIC 'DATASG' 
                                	EXTRN	TEMP3:WORD,TEMP9:WORD,VARTAB:WORD,ARYTAB
				:WORD,CHNFLG:WORD 
                                	EXTRN	STREND:WORD 
                                	EXTRN	CURLIN:WORD,SAVSTK:WORD,ENDBUF:WORD,MRGF
				LG:WORD,MDLFLG:WORD 
                                	EXTRN	CHNLIN:WORD,CMEPTR:WORD,CMSPTR:WORD 
 0000                           DSEG	ENDS 
                                	EXTRN	BLTUC:NEAR,DATA:NEAR 
                                	EXTRN	FNDLIN:NEAR,USERR:NEAR,ERSFIN:NEAR,FCERR
				:NEAR,NOARYS:NEAR 
                                	EXTRN	DEL:NEAR,LINKER:NEAR,SCNLIN:NEAR,FRQINT:
				NEAR 
                                ; This is the code for the CHAIN statement 
                                ; The syntax is: 
                                ; CHAIN [MERGE]<file name>[,[<line number>][,AL
				L][,DELETE <range>]] 
                                ; The steps required to execute a CHAIN are: 
                                ; 
Microsoft (R) Macro Assembler  Version 4.00                 7/13/20 11:20:05

FIVEO 5.0 Features -WHILE/WEND, CALL, CHAIN, WRITE /P. AllenPage     1-18
CHAIN                                                       

                                ; 1.) Scan arguments 
                                ; 
                                ; 2.) Scan program for all COMMON statements an
				d 
                                ;       mark specified variables. 
                                ; 
                                ; 3.) Squeeze unmarked entries from symbol tabl
				e. 
                                ; 
                                ; 4.) Copy string literals to string space 
                                ; 
                                ; 5.) Move all simple variables and arrays into
				 the 
                                ;       bottom of string space. 
                                ; 
                                ; 6.) Load new program 
                                ; 
                                ; 7.) Move variables back down positioned after
				 program. 
                                ; 
                                ; 8.) Run program 
 00A6                           CHAIN: 
 00A6  32 C0                    	XOR	AL,AL		;Assume no MERGE 
 00A8  A2 0000 E                	MOV	BYTE PTR MRGFLG,AL 
 00AB  A2 0000 E                	MOV	BYTE PTR MDLFLG,AL	;Also no MERGE w/ DELET
				E option 
 0000                           DSEG	SEGMENT PUBLIC 'DATASG' 
                                	EXTRN	OPTFLG:WORD,TOPTFG:WORD,OPTVAL:WORD,TOPT
				VL:WORD 
 0000                           DSEG	ENDS 
 00AE  A0 0000 E                	MOV	AL,BYTE PTR OPTFLG 
 00B1  A2 0000 E                	MOV	BYTE PTR TOPTFG,AL	;SAVE OPTION BASE VALUE
				 
 00B4  A0 0000 E                	MOV	AL,BYTE PTR OPTVAL	;SAVE OPTION VALUE FOR 
				ARRAY BASE 
 00B7  A2 0000 E                	MOV	BYTE PTR TOPTVL,AL 
 00BA  8A 07                    	MOV	AL,BYTE PTR [BX]	;Get current char 
 00BC  BA 0000 E                	MOV	DX,OFFSET $MERGE	;Is it MERGE? 
 00BF  3A C2                    	CMP	AL,DL		;Test 
 00C1  75 04                    	JNZ	SHORT NTCHNM	;NO 
 00C3  A2 0000 E                	MOV	BYTE PTR MRGFLG,AL	;Set MERGE flag 
 00C6  43                       	INC	BX 
 00C7  4B                       NTCHNM:	DEC	BX		;Rescan file name 
 00C8  E8 0000 E                	CALL	CHRGTR 
                                	EXTRN	PRGFLI:NEAR 
 00CB  E8 0000 E                	CALL	PRGFLI		;Evaluate file name and OPEN it 
 00CE  53                       	PUSH	BX		;Save text pointer 
 00CF  BB 0000                  	MOV	BX,0		;Get zero 
 00D2  89 1E 0000 E             	MOV	CHNLIN,BX	;Assume no CHAIN line # 
 00D6  5B                       	POP	BX		;Restore text pointer 
 00D7  4B                       	DEC	BX		;Back up pointer 
 00D8  E8 0000 E                	CALL	CHRGTR		;Scan char 
 00DB  75 03                    	JNZ	SHORT ??L001 
 00DD  EB 76 90                 	JMP	NTCHAL		;No line number etc. 
Microsoft (R) Macro Assembler  Version 4.00                 7/13/20 11:20:05

FIVEO 5.0 Features -WHILE/WEND, CALL, CHAIN, WRITE /P. AllenPage     1-19
CHAIN                                                       

 00E0                           ??L001: 
 00E0  E8 0000 E                	CALL	SYNCHR 
 00E3  2C                       	DB	OFFSET 54O	;Must be comma 
 00E4  3C 2C                    	CMP	AL,LOW 54O	;Ommit line # (Use ALL for inst
				ance) 
 00E6  74 12                    	JZ	SHORT NTLINF	;YES 
 00E8  E8 0000 E                	CALL	FRMEVL		;Evaluate line # formula 
 00EB  53                       	PUSH	BX		;Save text poiner 
 00EC  E8 0000 E                	CALL	FRQINT		;Force to int in [H,L] 
 00EF  89 1E 0000 E             	MOV	CHNLIN,BX	;Save it for later 
 00F3  5B                       	POP	BX		;Restore text poiner 
 00F4  4B                       	DEC	BX		;Rescan last char 
 00F5  E8 0000 E                	CALL	CHRGTR 
 00F8  74 5B                    	JZ	SHORT NTCHAL	;No ALL i.e. preserve all vars
				 across CHAIN 
 00FA  E8 0000 E                NTLINF:	CALL	SYNCHR 
 00FD  2C                       	DB	OFFSET 54O	;Should be comma here 
 00FE  BA 0000 E                	MOV	DX,OFFSET $DELETE	;Test for DELETE option 
 0101  3A C2                    	CMP	AL,DL		;Is it? 
 0103  74 1E                    	JZ	SHORT CHMWDL	;Yes 
 0105  E8 0000 E                	CALL	SYNCHR 
 0108  41                       	DB	OFFSET "A"	;Check for "ALL" 
 0109  E8 0000 E                	CALL	SYNCHR 
 010C  4C                       	DB	OFFSET "L" 
 010D  E8 0000 E                	CALL	SYNCHR 
 0110  4C                       	DB	OFFSET "L" 
 0111  75 03                    	JNZ	SHORT ??L002 
 0113  E9 02EB R                	JMP	DNCMDA		;Goto step 3 
 0116                           ??L002: 
 0116  E8 0000 E                	CALL	SYNCHR 
 0119  2C                       	DB	OFFSET 54O	;Force comma to appear 
 011A  3A C2                    	CMP	AL,DL		;Must be DELETE 
 011C  74 03                    	JZ	SHORT ??L003 
 011E  E9 0000 E                	JMP	SNERR		;No, give error 
 0121                           ??L003: 
 0121  0A C0                    	OR	AL,AL		;Flag to goto DNCMDA 
 0123  9C                       CHMWDL:	PUSHF			;Save ALL flag 
 0124  A2 0000 E                	MOV	BYTE PTR MDLFLG,AL	;Set MERGE w/ DELETE 
 0127  E8 0000 E                	CALL	CHRGTR		;Get char after comma 
 012A  E8 0000 E                	CALL	SCNLIN		;Scan line range 
                                	EXTRN	DEPTR:NEAR 
 012D  51                       	PUSH	CX 
 012E  E8 0000 E                	CALL	DEPTR		;Change pointers back to numbers 
 0131  59                       	POP	CX 
 0132  5A                       	POP	DX		;Pop max line off stack 
 0133  51                       	PUSH	CX		;Save pointer to start of 1st line 
 0134  8B D9                    	MOV	BX,CX		;Save pointer to start line 
 0136  89 1E 0000 E             	MOV	CMSPTR,BX 
 013A  E8 0000 E                	CALL	FNDLIN		;Find the last line 
 013D  73 0B                    	JAE	SHORT FCERRG	;Must have exact match on end
				 of range 
 013F  8A F7                    	MOV	DH,BH		;[D,E] =  pointer at the start of t
				he line 
 0141  8A D3                    	MOV	DL,BL		;beyond the last line in the range 
Microsoft (R) Macro Assembler  Version 4.00                 7/13/20 11:20:05

FIVEO 5.0 Features -WHILE/WEND, CALL, CHAIN, WRITE /P. AllenPage     1-20
CHAIN                                                       

 0143  89 1E 0000 E             	MOV	CMEPTR,BX	;Save pointer to end line 
 0147  5B                       	POP	BX		;Get back pointer to start of range 
 0148  3B DA                    	CMP	BX,DX		;Make sure the start comes before t
				he end 
 014A  72 03                    FCERRG:	JNAE	SHORT ??L004 
 014C  E9 0000 E                	JMP	FCERR		;If not, "Illegal function call" 
 014F                           ??L004: 
 014F  9D                       	POPF			;Flag that says whether to go to DNCMDA
				 
 0150  74 03                    	JZ	SHORT ??L005 
 0152  E9 02EB R                	JMP	DNCMDA		;"ALL" option was present 
 0155                           ??L005: 
 0155  8B 1E 0000 E             NTCHAL:	MOV	BX,CURLIN	;Save current line number
				 on stack 
 0159  53                       	PUSH	BX 
 015A  8B 1E 0000 E             	MOV	BX,TXTTAB	;Start searching for COMMONs at 
				program start 
 015E  4B                       	DEC	BX		;Compensate for next instr 
 015F  43                       CLPSC1:	INC	BX		;Look at first char of next lin
				e 
 0160  8A 07                    CLPSCN:	MOV	AL,BYTE PTR [BX]	;Get char from pro
				gram 
 0162  43                       	INC	BX 
 0163  0A 07                    	OR	AL,BYTE PTR [BX]	;Are we pointing to progra
				m end? 
 0165  75 03                    	JNZ	SHORT ??L006 
 0167  E9 0250 R                	JMP	CLPFIN		;Yes 
 016A                           ??L006: 
 016A  43                       	INC	BX 
 016B  8B 17                    	MOV	DX,[BX]		;Get line # in [D,E] 
 016D  43                       	INC	BX 
 016E  89 16 0000 E             	MOV	CURLIN,DX	;Save current line # in CURLIN f
				or errors 
 0172  E8 0000 E                CSTSCN:	CALL	CHRGTR		;Get statment type 
 0175  0A C0                    AFTCOM:	OR	AL,AL 
 0177  74 E6                    	JZ	SHORT CLPSC1	;EOL Scan next one 
 0179  3C 3A                    	CMP	AL,LOW ":"	;Are we looking at colon 
 017B  74 F5                    	JZ	SHORT CSTSCN	;Yes, get next statement 
 017D  3C FE                    	CMP	AL,LOW 254D	;COMMONs prceeded by 254 
 017F  75 0B                    	JNZ	SHORT NOCOMM	;not one 
 0181  43                       	INC	BX		;move ahead 
 0182  8A 07                    	MOV	AL,BYTE PTR [BX] 
 0184  BA 0000 E                	MOV	DX,OFFSET $COMMON	;Test for COMMON, avoid 
				byte externals 
 0187  3A C2                    	CMP	AL,DL		;Is it a COMMON? 
 0189  74 0A                    	JZ	SHORT DOCOMM	;Yes, handle it 
 018B  4B                       	DEC	BX		;Back up the pointer. 
 018C  E8 0000 E                NOCOMM:	CALL	CHRGTR		;Get first char of stateme
				nt 
 018F  E8 0000 E                	CALL	DATA		;Skip over statement 
 0192  4B                       	DEC	BX		;Back up to rescan terminator 
 0193  EB DD                    	JMP	SHORT CSTSCN	;Scan next one 
 0195  E8 0000 E                DOCOMM:	CALL	CHRGTR		;Get thing after COMMON 
 0198  74 DB                    	JZ	SHORT AFTCOM	;Get next thing 
Microsoft (R) Macro Assembler  Version 4.00                 7/13/20 11:20:05

FIVEO 5.0 Features -WHILE/WEND, CALL, CHAIN, WRITE /P. AllenPage     1-21
CHAIN                                                       

 019A  53                       NXTCOM:	PUSH	BX		;Save text pointer 
 019B  B0 01                    	MOV	AL,LOW 1	;Call PTRGET to search for array 
 019D  A2 0000 E                	MOV	BYTE PTR SUBFLG,AL 
 01A0  E8 0000 E                	CALL	PTRGTN		;This subroutine in F3 scans vari
				ables 
 01A3  74 64                    	JZ	SHORT FNDAAY	;Found array 
 01A5  8A C5                    	MOV	AL,CH		;Try finding array with COMMON bit 
				set 
 01A7  0C 80                    	OR	AL,LOW 128D 
 01A9  8A E8                    	MOV	CH,AL 
 01AB  32 C0                    	XOR	AL,AL		;Set zero CC 
 01AD  E8 0000 E                	CALL	ERSFIN		;Search array table 
 01B0  B0 00                    	MOV	AL,LOW 0	;Clear SUBFLG in all cases 
 01B2  A2 0000 E                	MOV	BYTE PTR SUBFLG,AL 
 01B5  75 09                    	JNZ	SHORT NTFN2T	;Not found, try simple 
 01B7  8A 07                    	MOV	AL,BYTE PTR [BX]	;Get terminator, should b
				e "(" 
 01B9  3C 28                    	CMP	AL,LOW "("	;Test 
 01BB  75 0B                    	JNZ	SHORT SCNSMP	;Must be simple then 
 01BD  9D                       	POPF			;Get rid of saved text pointer 
 01BE  EB 69                    	JMP	SHORT COMADY	;Already was COMMON, ignore i
				t 
 01C0  8A 07                    NTFN2T:	MOV	AL,BYTE PTR [BX]	;Get terminator 
 01C2  3C 28                    	CMP	AL,LOW "("	;Array specifier? 
 01C4  5A                       	POP	DX		;(DE:=saved text pointer.) 
 01C5  74 55                    	JZ	SHORT SKPCOM	;Yes, undefined array - just s
				kip it. 
 01C7  52                       	PUSH	DX		;No, resave pointer to start of varia
				ble 
 01C8  5B                       SCNSMP:	POP	BX		;Rescan variable name for start
				 
 01C9  E8 0000 E                	CALL	PTRGTN		;Evaluate as simple 
 01CC  0B D2                    	OR	DX,DX		;If var not found, [D,E]=0 
 01CE  75 1A                    	JNZ	SHORT COMFNS	;Found it 
 01D0  8A C5                    	MOV	AL,CH		;Try to find in COMMON 
 01D2  0C 80                    	OR	AL,LOW 128D	;Set COMMON bit 
 01D4  8A E8                    	MOV	CH,AL 
 01D6  BA 01E6 R                	MOV	DX,OFFSET COMPT2	;push on return address 
 01D9  52                       	PUSH	DX 
 01DA  BA 0000 E                	MOV	DX,OFFSET PTRGTR	;address to common return
				 point 
 01DD  52                       	PUSH	DX 
 01DE  A0 0000 E                	MOV	AL,BYTE PTR VALTYP	;Must have VALTYP in [D
				] 
 01E1  8A F0                    	MOV	DH,AL 
 01E3  E9 0000 E                	JMP	NOARYS		;Search symbol table 
 01E6  0B D2                    COMPT2:	OR	DX,DX		;Found? 
 01E8  74 32                    	JZ	SHORT SKPCOM	;No, just skip over this varia
				ble. 
 01EA  53                       COMFNS:	PUSH	BX		;Save text pointer 
 01EB  8A EE                    	MOV	CH,DH		;Get pointer to var in [B,C] 
 01ED  8A CA                    	MOV	CL,DL 
 01EF  BB 021B R                	MOV	BX,OFFSET BCKUCM	;Loop back here 
 01F2  53                       	PUSH	BX 
Microsoft (R) Macro Assembler  Version 4.00                 7/13/20 11:20:05

FIVEO 5.0 Features -WHILE/WEND, CALL, CHAIN, WRITE /P. AllenPage     1-22
CHAIN                                                       

 01F3  49                       CBAKBL:	DEC	CX		;Point at first char of rest 
 01F4  8B F1                    LPBKNC:	MOV	SI,CX 
 01F6  8A 04                    	MOV	AL,[SI]		;Back up until plus byte 
 01F8  49                       	DEC	CX 
 01F9  0A C0                    	OR	AL,AL 
 01FB  79 02                    	JNS	SHORT ??L007 
 01FD  EB F5                    	JMP	LPBKNC 
 01FF                           ??L007: 
                                				;Now point to 2nd char of var name 
 01FF  8B F1                    	MOV	SI,CX 
 0201  8A 04                    	MOV	AL,[SI]		;set COMMON bit 
 0203  0C 80                    	OR	AL,LOW 128D 
 0205  8B F9                    	MOV	DI,CX 
 0207  AA                       	STOSB 
 0208  C3                       	RET			;done 
 0209  A2 0000 E                FNDAAY:	MOV	BYTE PTR SUBFLG,AL	;Array found, cl
				ear SUBFLG 
 020C  8A 07                    	MOV	AL,BYTE PTR [BX]	;Make sure really array s
				pec 
 020E  3C 28                    	CMP	AL,LOW "("	;Really an array? 
 0210  75 B6                    	JNZ	SHORT SCNSMP	;No, scan as simp 
 0212  5E                       	POP	SI		;XTHL 
 0213  87 F3                    	XCHG	SI,BX 
 0215  56                       	PUSH	SI		;Save text pointer, get rid of saved 
				text pointer 
 0216  49                       BAKCOM:	DEC	CX		;Point at last char of name ext
				ension 
 0217  49                       	DEC	CX 
 0218  E8 01F3 R                	CALL	CBAKBL		;Back up before variable and mark
				 as COMMON 
 021B  5B                       BCKUCM:	POP	BX		;Restore text pointer 
 021C  4B                       SKPCOM:	DEC	BX		;Rescan terminator 
 021D  E8 0000 E                	CALL	CHRGTR 
 0220  75 03                    	JNZ	SHORT ??L008 
 0222  E9 0175 R                	JMP	AFTCOM		;End of COMMON statement 
 0225                           ??L008: 
 0225  3C 28                    	CMP	AL,LOW "("	;End of COMMON array spec? 
 0227  75 20                    	JNZ	SHORT CHKCST	;No, should be comma 
 0229  53                       COMADY:	PUSH	BX 
 022A  E8 0000 E                	CALL	CHRGTR		;Fetch char after paren 
 022D  3C 29                    	CMP	AL,LOW ")" 
 022F  74 0E                    	JZ	SHORT COMRPN	;Only right paren follows 
 0231  5B                       	POP	BX 
                                	EXTRN	EVAL:NEAR 
 0232  E8 0000 E                	CALL	EVAL		;Possible number of dimensions(comp
				iler compatible) 
 0235  E8 0000 E                	CALL	GETYPR 
 0238  75 03                    	JNZ	SHORT ??L009 
 023A  E9 0000 E                	JMP	FCERR		;Dimensions argument cannot be stri
				ng 
 023D                           ??L009: 
 023D  EB 01                    	JMP	SHORT COMRP1 
 023F  5A                       COMRPN:	POP	DX 
 0240  E8 0000 E                COMRP1:	CALL	SYNCHR 
Microsoft (R) Macro Assembler  Version 4.00                 7/13/20 11:20:05

FIVEO 5.0 Features -WHILE/WEND, CALL, CHAIN, WRITE /P. AllenPage     1-23
CHAIN                                                       

 0243  29                       	DB	OFFSET ")"	;Right paren should follow 
 0244  75 03                    	JNZ	SHORT ??L010 
 0246  E9 0175 R                	JMP	AFTCOM		;End of COMMON 
 0249                           ??L010: 
 0249  E8 0000 E                CHKCST:	CALL	SYNCHR 
 024C  2C                       	DB	OFFSET 54O	;Force comma to appear here 
 024D  E9 019A R                	JMP	NXTCOM		;Get next COMMON variable 
                                ; Step 3 - Squeeze.. 
 0250  5B                       CLPFIN:	POP	BX		;Restore previous CURLIN 
 0251  89 1E 0000 E             	MOV	CURLIN,BX 
 0255  8B 16 0000 E             	MOV	DX,ARYTAB	;End of simple var squeeze to [D
				,E] 
 0259  8B 1E 0000 E             	MOV	BX,VARTAB	;Start of simps 
 025D  3B DA                    CLPSLP:	CMP	BX,DX		;Are we done? 
 025F  74 5B                    	JZ	SHORT DNCMDS	;Yes done, with simps 
 0261  53                       	PUSH	BX		;Save where this simp is 
 0262  8A 0F                    	MOV	CL,BYTE PTR [BX]	;Get VALTYP 
 0264  43                       	INC	BX 
 0265  43                       	INC	BX 
 0266  8A 07                    	MOV	AL,BYTE PTR [BX]	;Get COMMON bit 
 0268  0A C0                    	OR	AL,AL		;Set minus if COMMON 
 026A  9C                       	PUSHF			;Save indicator 
 026B  24 7F                    	AND	AL,LOW 177O	;Clear COMMON bit 
 026D  88 07                    	MOV	BYTE PTR [BX],AL	;Save back 
 026F  43                       	INC	BX 
 0270  E8 0000 E                	CALL	IADAHL		;Skip over rest of var name 
 0273  B5 00                    	MOV	CH,LOW 0	;Skip VALTYP bytes 
 0275  03 D9                    	ADD	BX,CX 
 0277  9D                       	POPF			;Get indicator whether to delete 
 0278  59                       	POP	CX		;Pointer to where var started 
 0279  79 02                    	JNS	SHORT ??L011 
 027B  EB E0                    	JMP	CLPSLP 
 027D                           ??L011: 
 027D  51                       	PUSH	CX		;This is where we will resume scannin
				g vars later 
 027E  E8 0290 R                	CALL	VARDLS		;Delete variable 
 0281  8B 1E 0000 E             	MOV	BX,ARYTAB	;Now correct ARYTAB by # of byte
				s deleted 
 0285  03 DA                    	ADD	BX,DX		;Add negative difference between ol
				d and new 
 0287  89 1E 0000 E             	MOV	ARYTAB,BX	;Save new ARYTAB 
 028B  87 DA                    	XCHG	BX,DX		;To [D,E] 
 028D  5B                       	POP	BX		;Get current place back in [H,L] 
 028E  EB CD                    	JMP	SHORT CLPSLP 
 0290  87 DA                    VARDLS:	XCHG	BX,DX		;Point to where var ends 
 0292  8B 1E 0000 E             VARDL1:	MOV	BX,STREND	;One beyond last byte to 
				move 
 0296  3B DA                    DLSVLP:	CMP	BX,DX		;Done? 
 0298  8B F2                    	MOV	SI,DX 
 029A  8A 04                    	MOV	AL,[SI]		;Grab byte 
 029C  8B F9                    	MOV	DI,CX 
 029E  AA                       	STOSB			;Move down 
 029F  9F                       	LAHF 
 02A0  42                       	INC	DX		;Increment pointers 
Microsoft (R) Macro Assembler  Version 4.00                 7/13/20 11:20:05

FIVEO 5.0 Features -WHILE/WEND, CALL, CHAIN, WRITE /P. AllenPage     1-24
CHAIN                                                       

 02A1  9E                       	SAHF 
 02A2  9F                       	LAHF 
 02A3  41                       	INC	CX 
 02A4  9E                       	SAHF 
 02A5  75 EF                    	JNZ	SHORT DLSVLP 
 02A7  8A C1                    	MOV	AL,CL		;Get difference between old and new
				 
 02A9  2A C3                    	SUB	AL,BL		;Into [D,E] ([D,E]=[B,C]-[H,L]) 
 02AB  8A D0                    	MOV	DL,AL 
 02AD  8A C5                    	MOV	AL,CH 
 02AF  1A C7                    	SBB	AL,BH 
 02B1  8A F0                    	MOV	DH,AL 
 02B3  4A                       	DEC	DX		;Correct # of bytes 
 02B4  49                       	DEC	CX		;Moved one too far 
 02B5  8B D9                    	MOV	BX,CX		;Get new STREND [H,L] 
 02B7  89 1E 0000 E             	MOV	STREND,BX	;Store it 
 02BB  C3                       	RET 
 02BC  8B 16 0000 E             DNCMDS:	MOV	DX,STREND	;Limit of array search 
 02C0  3B DA                    CLPAKP:	CMP	BX,DX		;Done? 
 02C2  74 27                    	JZ	SHORT DNCMDA	;Yes 
 02C4  53                       	PUSH	BX		;Save pointer to VALTYP 
 02C5  43                       	INC	BX		;Move down to COMMON bit 
 02C6  43                       	INC	BX 
 02C7  8A 07                    	MOV	AL,BYTE PTR [BX]	;Get it 
 02C9  0A C0                    	OR	AL,AL		;Set CC's 
 02CB  9C                       	PUSHF			;Save COMMON indicator 
 02CC  24 7F                    	AND	AL,LOW 177O	;Clear COMMON bit 
 02CE  88 07                    	MOV	BYTE PTR [BX],AL	;Save back 
 02D0  43                       	INC	BX		;Point to length of array 
 02D1  E8 0000 E                	CALL	IADAHL		;Add length of var name 
 02D4  8A 0F                    	MOV	CL,BYTE PTR [BX]	;Get length of array in [
				B,C] 
 02D6  43                       	INC	BX 
 02D7  8A 2F                    	MOV	CH,BYTE PTR [BX] 
 02D9  43                       	INC	BX 
 02DA  03 D9                    	ADD	BX,CX		;[H,L] now points after array 
 02DC  9D                       	POPF			;Get back COMMON indicator 
 02DD  59                       	POP	CX		;Get pointer to start of array 
 02DE  79 02                    	JNS	SHORT ??L012 
 02E0  EB DE                    	JMP	CLPAKP		;COMMON, dont delete! 
 02E2                           ??L012: 
 02E2  51                       	PUSH	CX		;Save so we can resume 
 02E3  E8 0290 R                	CALL	VARDLS		;Delete the array 
 02E6  87 DA                    	XCHG	BX,DX		;Returns with STREND in HL, so put
				 in DE 
 02E8  5B                       	POP	BX		;Get back pointer to the next array 
 02E9  EB D5                    	JMP	SHORT CLPAKP	;Check next array 
                                ; Step 4 - Copy literals into string space 
                                ; This code is very similar to the string garba
				ge collect code 
                                ; If BIGSTR is on, we also have to fix up the s
				tring back pointers. 
 02EB                           DNCMDA: 
 02EB  8B 1E 0000 E             	MOV	BX,VARTAB	;Look at simple strings 
Microsoft (R) Macro Assembler  Version 4.00                 7/13/20 11:20:05

FIVEO 5.0 Features -WHILE/WEND, CALL, CHAIN, WRITE /P. AllenPage     1-25
CHAIN                                                       

 02EF  8B 16 0000 E             CSVAR:	MOV	DX,ARYTAB	;Limit of search to [D,E] 
 02F3  3B DA                    	CMP	BX,DX		;Done? 
 02F5  74 13                    	JZ	SHORT CAYVAR	;Yes 
 02F7  E8 0440 R                	CALL	SKPNAM		;Skip name, returns Z if was a st
				ring 
 02FA  75 05                    	JNZ	SHORT CSKPVA	;Skip this var, not string 
 02FC  E8 033E R                	CALL	CDVARS		;Copy this guy into string space 
				if nesc 
 02FF  32 C0                    	XOR	AL,AL		;CDVARS has already incremented [H,
				L] 
 0301                           CSKPVA: 
 0301  8A D0                    	MOV	DL,AL 
 0303  B6 00                    	MOV	DH,LOW 0	;Add length of VALTYP 
 0305  03 DA                    	ADD	BX,DX 
 0307  EB E6                    	JMP	SHORT CSVAR 
 0309  59                       CAYVA2:	POP	CX		;Adjust stack 
 030A  8B 16 0000 E             CAYVAR:	MOV	DX,STREND	;New limit of search 
 030E  3B DA                    	CMP	BX,DX		;Done? 
 0310  74 5E                    	JZ	SHORT DNCCLS	;Yes 
 0312  E8 0440 R                	CALL	SKPNAM		;Skip over name 
 0315  50                       	PUSH	AX		;Save VALTYP 
 0316  8A 0F                    	MOV	CL,BYTE PTR [BX]	;Get length of array 
 0318  43                       	INC	BX 
 0319  8A 2F                    	MOV	CH,BYTE PTR [BX]	;Into [B,C] 
 031B  43                       	INC	BX 
 031C  58                       	POP	AX		;Get back VALTYP 
 031D  53                       	PUSH	BX		;Save pointer to array element 
 031E  03 D9                    	ADD	BX,CX		;Point after array 
 0320  3C 03                    	CMP	AL,LOW 3	;String array? 
 0322  75 E5                    	JNZ	SHORT CAYVA2	;No, look at next one 
 0324  89 1E 0000 E             	MOV	TEMP3,BX	;Save pointer to end of array 
 0328  5B                       	POP	BX		;Get back pointer to array start 
 0329  8A 0F                    	MOV	CL,BYTE PTR [BX]	;Pick up number of DIMs 
 032B  B5 00                    	MOV	CH,LOW 0	;Make double with high zero 
 032D  03 D9                    	ADD	BX,CX		;Go past DIMS 
 032F  03 D9                    	ADD	BX,CX 
 0331  43                       	INC	BX		;One more to account for # of DIMs 
 0332  8B 16 0000 E             CAYSTR:	MOV	DX,TEMP3	;Get end of array 
 0336  3B DA                    	CMP	BX,DX		;See if at end of array 
 0338  74 D0                    	JZ	SHORT CAYVAR	;Get next array 
 033A  B9 0332 R                	MOV	CX,OFFSET CAYSTR	;Do next str in array 
 033D  51                       	PUSH	CX		;Save branch address on stack 
 033E                           CDVARS: 
 033E  8A 07                    	MOV	AL,BYTE PTR [BX]	;Get length of array entr
				y 
 0340  43                       	INC	BX		;Also pick up pointer into [D,E] 
 0341  8B 17                    	MOV	DX,[BX]		;Get data pointer 
 0343  43                       	INC	BX 
 0344  43                       	INC	BX 
 0345  0A C0                    	OR	AL,AL		;Set CC's on length 
 0347  75 01                    	JNZ	SHORT $+3 
 0349  C3                       	RET			;Ignore null strings 
 034A  53                       	PUSH	BX		;Save where we are 
 034B  8B 1E 0000 E             	MOV	BX,VARTAB	;Is string in program text or di
Microsoft (R) Macro Assembler  Version 4.00                 7/13/20 11:20:05

FIVEO 5.0 Features -WHILE/WEND, CALL, CHAIN, WRITE /P. AllenPage     1-26
CHAIN                                                       

				sk buffers? 
 034F  3B DA                    	CMP	BX,DX		;Compare 
 0351  5B                       	POP	BX		;Restore where we are 
 0352  73 01                    	JNB	SHORT $+3 
 0354  C3                       	RET			;No, must be in string space 
 0355  53                       	PUSH	BX		;save where we are again. 
 0356  8B 1E 0000 E             	MOV	BX,TXTTAB	;is it in buffers? 
 035A  3B DA                    	CMP	BX,DX		;test 
 035C  5B                       	POP	BX		;Restore where we are 
 035D  72 01                    	JNAE	SHORT $+3 
 035F  C3                       	RET			;in buffers, do nothing 
 0360  53                       	PUSH	BX		;Save where we are for nth time 
 0361  4B                       	DEC	BX		;Point to start of descriptor 
 0362  4B                       	DEC	BX 
 0363  4B                       	DEC	BX 
 0364  53                       	PUSH	BX		;Save pointer to start 
 0365  E8 0000 E                	CALL	STRCPY		;Copy string into DSCTMP 
 0368  5B                       	POP	BX		;Destination in [H,L], source in [D,E]
				 
 0369  B5 03                    	MOV	CH,LOW 3	;# of bytes to move 
 036B  E8 0000 E                	CALL	MOVE1		;Move em 
 036E  5B                       	POP	BX		;Where we are 
 036F  C3                       	RET 
                                ; Step 5 - Move stuff up into string space! 
 0370                           DNCCLS: 
 0370  E8 0000 E                	CALL	GARBA2		;Get rid of unused strings 
 0373  8B 1E 0000 E             	MOV	BX,STREND	;Load end of vars 
 0377  8B CB                    	MOV	CX,BX		;Into [B,C] 
 0379  8B 16 0000 E             	MOV	DX,VARTAB	;Start of simps into [D,E] 
 037D  8B 1E 0000 E             	MOV	BX,ARYTAB 
 0381  2B DA                    	SUB	BX,DX		;Get length of simps in [H,L] 
 0383  89 1E 0000 E             	MOV	TEMP9,BX	;Save here 
 0387  8B 1E 0000 E             	MOV	BX,FRETOP	;Destination of high byte 
 038B  89 1E 0000 E             	MOV	SAVFRE,BX	;Save FRETOP to restore later 
 038F  E8 0000 E                	CALL	BLTUC		;Move stuff up 
 0392  8B D9                    	MOV	BX,CX		;Now adjust top of memory below sav
				ed vars 
 0394  4B                       	DEC	BX		;One lower to be sure 
 0395  89 1E 0000 E             	MOV	FRETOP,BX	;Update FRETOP to reflect new va
				lue 
 0399  A0 0000 E                	MOV	AL,BYTE PTR MDLFLG	;MERGE w/ DELETE? 
 039C  0A C0                    	OR	AL,AL		;Test 
 039E  74 18                    	JZ	SHORT NTMDLT	;No 
 03A0  8B 1E 0000 E             	MOV	BX,CMSPTR	;Start of lines to delete 
 03A4  8B CB                    	MOV	CX,BX		;Into [B,C] 
 03A6  8B 1E 0000 E             	MOV	BX,CMEPTR	;End of lines to delete 
 03AA  E8 0000 E                	CALL	DEL		;Delete the lines 
 03AD  89 1E 0000 E             	MOV	ARYTAB,BX	;***also set up ARYTAB and STREN
				D 
 03B1  89 1E 0000 E             	MOV	STREND,BX	;in case we get error in CHAIN 
                                				;because of file lookup and then have to 
                                				;look at variables later (shouldnt be any) 
                                				;***PGA 7/7/81 
 03B5  E8 0000 E                	CALL	LINKER		;Re-link lines just in case 
Microsoft (R) Macro Assembler  Version 4.00                 7/13/20 11:20:05

FIVEO 5.0 Features -WHILE/WEND, CALL, CHAIN, WRITE /P. AllenPage     1-27
CHAIN                                                       

                                ; Step 6 - load new program 
 03B8  B0 01                    NTMDLT:	MOV	AL,LOW 1	;Set CHAIN flag 
 03BA  A2 0000 E                	MOV	BYTE PTR CHNFLG,AL 
                                	EXTRN	CHNENT:NEAR,OKGETM:NEAR 
 03BD  A0 0000 E                	MOV	AL,BYTE PTR MRGFLG	;MERGEing? 
 03C0  0A C0                    	OR	AL,AL		;Set cc'S 
 03C2  74 03                    	JZ	SHORT ??L013 
 03C4  E9 0000 E                	JMP	OKGETM		;Do MERGE 
 03C7                           ??L013: 
 03C7  E9 0000 E                	JMP	CHNENT		;Jump to LOAD code 
                                ; Step 7 - Move stuff back down 
                                	PUBLIC	CHNRET 
 03CA                           CHNRET: 
 03CA  A0 0000 E                	MOV	AL,BYTE PTR TOPTVL 
 03CD  A2 0000 E                	MOV	BYTE PTR OPTVAL,AL	;RESTORE IOTION BASE VA
				LUE 
 03D0  A0 0000 E                	MOV	AL,BYTE PTR TOPTFG 
 03D3  A2 0000 E                	MOV	BYTE PTR OPTFLG,AL	;LRESTORE OPTION FLG 
 03D6  32 C0                    	XOR	AL,AL		;Clear CHAIN, MERGE flags 
 03D8  A2 0000 E                	MOV	BYTE PTR CHNFLG,AL 
 03DB  A2 0000 E                	MOV	BYTE PTR MRGFLG,AL 
 03DE  8B 1E 0000 E             	MOV	BX,VARTAB	;Get current VARTAB 
 03E2  8B CB                    	MOV	CX,BX		;Into [B,C] 
 03E4  8B 1E 0000 E             	MOV	BX,TEMP9	;Get length of simps 
 03E8  03 D9                    	ADD	BX,CX		;Add to present VARTAB to get new A
				RYTAB 
 03EA  89 1E 0000 E             	MOV	ARYTAB,BX 
 03EE  8B 1E 0000 E             	MOV	BX,FRETOP	;Where to start moving 
 03F2  43                       	INC	BX		;One higher 
 03F3  87 DA                    	XCHG	BX,DX		;Into [D,E] 
 03F5  8B 1E 0000 E             	MOV	BX,SAVFRE	;Last byte to move 
 03F9  89 1E 0000 E             	MOV	FRETOP,BX	;Restore FRETOP from this 
 03FD  3B DA                    MVBKVR:	CMP	BX,DX		;Done? 
 03FF  8B F2                    	MOV	SI,DX 
 0401  8A 04                    	MOV	AL,[SI]		;Move byte down 
 0403  8B F9                    	MOV	DI,CX 
 0405  AA                       	STOSB 
 0406  9F                       	LAHF 
 0407  42                       	INC	DX		;Increment pointers 
 0408  9E                       	SAHF 
 0409  9F                       	LAHF 
 040A  41                       	INC	CX 
 040B  9E                       	SAHF 
 040C  75 EF                    	JNZ	SHORT MVBKVR 
 040E  49                       	DEC	CX		;Point to last var byte 
 040F  8B D9                    	MOV	BX,CX		;[H,L]=last var byte 
 0411  89 1E 0000 E             	MOV	STREND,BX	;This is new end 
 0000                           DSEG	SEGMENT PUBLIC 'DATASG' 
                                	EXTRN	NLONLY:WORD 
 0000                           DSEG	ENDS 
 0415  32 C0                    	XOR	AL,AL		; 
 0417  A2 0000 E                	MOV	BYTE PTR NLONLY,AL	;allow all files to be 
				closed 
                                EXTRN	FINPRT:NEAR 
Microsoft (R) Macro Assembler  Version 4.00                 7/13/20 11:20:05

FIVEO 5.0 Features -WHILE/WEND, CALL, CHAIN, WRITE /P. AllenPage     1-28
CHAIN                                                       

 041A  E8 0000 E                	CALL	FINPRT		;close file zero and reset PTRFIL
				 to 0 
 041D  32 C0                    	XOR	AL,AL 
 041F  E8 0000 E                	CALL	RESTORE		;Make sure DATA is valid by doin
				g RESTORE 
 0422  8B 16 0000 E             	MOV	DX,CHNLIN	;Get CHAIN line # in [D,E] 
 0426  8B 1E 0000 E             	MOV	BX,TXTTAB	;Get prog start in [H,L] 
 042A  4B                       	DEC	BX		;Point at zero before program 
                                 
 042B  0B D2                    	OR	DX,DX		;line number zero? 
 042D  75 03                    	JNZ	SHORT ??L014 
 042F  E9 0000 E                	JMP	NEWSTT		;line #=0, go... 
 0432                           ??L014: 
 0432  E8 0000 E                	CALL	FNDLIN		;Try to find destination line 
 0435  72 03                    	JNAE	SHORT ??L015 
 0437  E9 0000 E                	JMP	USERR		;Not there... 
 043A                           ??L015: 
 043A  49                       	DEC	CX		;Point to zero on previous line 
 043B  8B D9                    	MOV	BX,CX		;Make text pointer for NEWSTT 
 043D  E9 0000 E                	JMP	NEWSTT		;Bye... 
                                ; 
                                ; Convenience routine to skip a variable's name
				 pointed to by HL. 
                                ; Returns VALTYP in A with the zero flag set if
				 it is a string. 
                                ; 
                                	PUBLIC	SKPNAM 
 0440                           SKPNAM: 
 0440  8A 07                    	MOV	AL,BYTE PTR [BX]	;Get VALTYP 
 0442  43                       	INC	BX		;Point to length of long var name 
 0443  43                       	INC	BX 
 0444  43                       	INC	BX 
 0445  50                       	PUSH	AX		;Save VALTYP 
 0446  E8 0000 E                	CALL	IADAHL		;Move past long variable name 
 0449  58                       	POP	AX		;Get back VALTYP 
 044A  3C 03                    	CMP	AL,LOW 3	;String? 
 044C  C3                       	RET 
                                ; 
                                ; 
 044D                           COMMON: 
 044D  E9 0000 E                	JMP	DATA 
                                 
                                	SUBTTL  WRITE 
                                	EXTRN	FINPRT:NEAR 
                                	EXTRN	FOUT:NEAR,STRLIT:NEAR,STRPRT:NEAR,OUTDO:
				NEAR 
 0000                           DSEG	SEGMENT PUBLIC 'DATASG' 
                                	EXTRN	FACLO:WORD 
 0000                           DSEG	ENDS 
                                	PUBLIC	WRITE 
 0450                           WRITE: 
                                	EXTRN	FILGET:NEAR 
 0450  B1 02                    	MOV	CL,LOW OFFSET MD_SQO	;Setup output file 
 0452  E8 0000 E                	CALL	FILGET 
Microsoft (R) Macro Assembler  Version 4.00                 7/13/20 11:20:05

FIVEO 5.0 Features -WHILE/WEND, CALL, CHAIN, WRITE /P. AllenPage     1-29
WRITE                                                       

 0455  4B                       WRTCHR:	DEC	BX 
 0456  E8 0000 E                	CALL	CHRGTR		;Get another character 
 0459  74 54                    	JZ	SHORT WRTFIN	;Done with WRITE 
 045B  E8 0000 E                WRTMLP:	CALL	FRMEVL		;Evaluate formula 
 045E  53                       	PUSH	BX		;Save the text pointer 
 045F  E8 0000 E                	CALL	GETYPR		;See if we have a string 
 0462  74 3C                    	JZ	SHORT WRTSTR	;We do 
 0464  E8 0000 E                	CALL	FOUT		;Convert to a string 
 0467  E8 0000 E                	CALL	STRLIT		;Literalize string 
 046A  8B 1E 0000 E             	MOV	BX,FACLO	;Get pointer to string 
 046E  43                       	INC	BX		;Point to address field 
 046F  8B 17                    	MOV	DX,[BX] 
 0471  43                       	INC	BX 
 0472  8B F2                    	MOV	SI,DX 
 0474  8A 04                    	MOV	AL,[SI]		;Is number positive? 
 0476  3C 20                    	CMP	AL,LOW " "	;Test 
 0478  75 09                    	JNZ	SHORT WRTNEG	;No, must be negative 
 047A  42                       	INC	DX 
 047B  88 37                    	MOV	BYTE PTR [BX],DH 
 047D  4B                       	DEC	BX 
 047E  88 17                    	MOV	BYTE PTR [BX],DL 
 0480  4B                       	DEC	BX 
 0481  FE 0F                    	DEC	BYTE PTR [BX]	;Adjust length of string (le
				ngth.LT.255 so OK) 
 0483  E8 0000 E                WRTNEG:	CALL	STRPRT		;Print the number 
 0486  5B                       NXTWRV:	POP	BX		;Get back text pointer 
 0487  4B                       	DEC	BX		;Back up pointer 
 0488  E8 0000 E                	CALL	CHRGTR		;Get next char 
 048B  74 22                    	JZ	SHORT WRTFIN	;end 
 048D  3C 3B                    	CMP	AL,LOW 59	;Semicolon? 
 048F  74 05                    	JZ	SHORT WASEMI	;Was one 
 0491  E8 0000 E                	CALL	SYNCHR 
 0494  2C                       	DB	OFFSET 54O	;Only possib left is comma 
 0495  4B                       	DEC	BX		;to compensate for later CHRGET 
 0496  E8 0000 E                WASEMI:	CALL	CHRGTR		;Fetch next char 
 0499  B0 2C                    	MOV	AL,LOW 54O	;put out comma 
 049B  E8 0000 E                	CALL	OUTDO 
 049E  EB BB                    	JMP	SHORT WRTMLP	;Back for more 
 04A0  B0 22                    WRTSTR:	MOV	AL,LOW 34	;put out double quote 
 04A2  E8 0000 E                	CALL	OUTDO		;Send it 
 04A5  E8 0000 E                	CALL	STRPRT		;print the string 
 04A8  B0 22                    	MOV	AL,LOW 34	;Put out another double quote 
 04AA  E8 0000 E                	CALL	OUTDO		;Send it 
 04AD  EB D7                    	JMP	SHORT NXTWRV	;Get next value 
 04AF                           WRTFIN: 
                                	EXTRN	CMPFBC:NEAR 
 0000                           DSEG	SEGMENT PUBLIC 'DATASG' 
                                	EXTRN	PTRFIL:WORD 
 0000                           DSEG	ENDS 
 04AF  53                       	PUSH	BX		;Save text pointer 
 04B0  8B 1E 0000 E             	MOV	BX,PTRFIL	;See if disk file 
 04B4  8A C7                    	MOV	AL,BH 
 04B6  0A C3                    	OR	AL,BL 
 04B8  74 45                    	JZ	SHORT NTRNDW	;No 
Microsoft (R) Macro Assembler  Version 4.00                 7/13/20 11:20:05

FIVEO 5.0 Features -WHILE/WEND, CALL, CHAIN, WRITE /P. AllenPage     1-30
WRITE                                                       

 04BA  53                       	PUSH	BX		;Save FDB pointer 
 04BB  B9 0034                  	MOV	CX,OFFSET F_DEV 
 04BE  03 D9                    	ADD	BX,CX		;HL points to Device Entry in FDB 
 04C0  8A 07                    	MOV	AL,BYTE PTR [BX]	;[A]=device id 
 04C2  0A C0                    	OR	AL,AL		;if disk [A] will be 0..n 
 04C4  5B                       	POP	BX 
 04C5  79 03                    	JNS	SHORT ??L016 
 04C7  EB 36 90                 	JMP	NTRNDW		;branch if special device ([A] is 
				negative) 
 04CA                           ??L016: 
 04CA  53                       	PUSH	BX 
 04CB  B9 0006                  	MOV	CX,OFFSET F_MODE 
 04CE  03 D9                    	ADD	BX,CX		;HL points to File Mode Byte in FDB
				 
 04D0  8A 07                    	MOV	AL,BYTE PTR [BX]	;[A]=file mode 
 04D2  5B                       	POP	BX		;Restore FDB pointer 
 04D3  3C 04                    	CMP	AL,LOW OFFSET MD_RND	;Random? 
 04D5  75 28                    	JNZ	SHORT NTRNDW	;NO 
 04D7  E8 0000 E                	CALL	CMPFBC		;See how many bytes left 
 04DA  8A C3                    	MOV	AL,BL		;do subtract 
 04DC  2A C2                    	SUB	AL,DL 
 04DE  8A D8                    	MOV	BL,AL 
 04E0  8A C7                    	MOV	AL,BH 
 04E2  1A C6                    	SBB	AL,DH 
 04E4  8A F8                    	MOV	BH,AL 
 = 0002                         	CRLFSQ=2		;Number of bytes in CR/LF sequence 
 04E6  BA FFFE                  	MOV	DX,OFFSET 0-CRLFSQ	;Subtract bytes in <cr>
				 
 04E9  9F                       	LAHF 
 04EA  03 DA                    	ADD	BX,DX 
 04EC  D1 DE                    	RCR	SI,1 
 04EE  9E                       	SAHF 
 04EF  D1 D6                    	RCL	SI,1 
 04F1  73 0C                    	JAE	SHORT NTRNDW	;Not enough, give error event
				ually 
 04F3  B0 20                    NXTWSP:	MOV	AL,LOW " "	;Put out spaces 
 04F5  E8 0000 E                	CALL	OUTDO		;Send space 
 04F8  4B                       	DEC	BX		;Count down 
 04F9  8A C7                    	MOV	AL,BH		;Count down 
 04FB  0A C3                    	OR	AL,BL 
 04FD  75 F4                    	JNZ	SHORT NXTWSP 
 04FF  5B                       NTRNDW:	POP	BX		;Restore [H,L] 
 0500  E8 0000 E                	CALL	CRDO		;Do crlf 
 0503  E9 0000 E                	JMP	FINPRT 
 0506                           CSEG	ENDS 
                                	END 

Microsoft (R) Macro Assembler  Version 4.00                 7/13/20 11:20:05

FIVEO 5.0 Features -WHILE/WEND, CALL, CHAIN, WRITE /P. AllenSymbols-1
                                                             

Macros:

		N a m e			Lines

ACRLF  . . . . . . . . . . . . .  	   2
ADR  . . . . . . . . . . . . . .  	   1
CALLOS . . . . . . . . . . . . .  	   4
CHRGET . . . . . . . . . . . . .  	   1
COMPAR . . . . . . . . . . . . .  	   2
DC . . . . . . . . . . . . . . .  	   6
DJNZ . . . . . . . . . . . . . .  	   2
FSIGN  . . . . . . . . . . . . .  	   1
GETYPE . . . . . . . . . . . . .  	   1
INS86  . . . . . . . . . . . . .  	  13
INST . . . . . . . . . . . . . .  	   1
LDDR . . . . . . . . . . . . . .  	   8
LDIR . . . . . . . . . . . . . .  	   8
MOVRI  . . . . . . . . . . . . .  	   6
OUTCHR . . . . . . . . . . . . .  	   1
POPR . . . . . . . . . . . . . .  	   2
PUSHM  . . . . . . . . . . . . .  	   5
PUSHR  . . . . . . . . . . . . .  	   2
ROFFST . . . . . . . . . . . . .  	   2
SYNCHK . . . . . . . . . . . . .  	   2

Segments and Groups:

                N a m e         	Size	Align	Combine Class

CSEG . . . . . . . . . . . . . .  	0506	PARA	PUBLIC	'CODESG'
DSEG . . . . . . . . . . . . . .  	0000	PARA	PUBLIC	'DATASG'

Symbols:            

                N a m e         	Type	Value	Attr         

AFTCOM . . . . . . . . . . . . .  	L NEAR	0175	CSEG
ALTAIR . . . . . . . . . . . . .  	Number	0000	
ANSI . . . . . . . . . . . . . .  	Number	0001	
ARYTAB . . . . . . . . . . . . .  	V WORD 	0000	DSEG	External
ASCBS  . . . . . . . . . . . . .  	Number	0008	
ASCCR  . . . . . . . . . . . . .  	Number	000D	
ASCCTC . . . . . . . . . . . . .  	Number	0003	
ASCCTS . . . . . . . . . . . . .  	Number	0013	
ASCCTZ . . . . . . . . . . . . .  	Number	001A	
ASCESC . . . . . . . . . . . . .  	Number	001B	
ASCLF  . . . . . . . . . . . . .  	Number	000A	
ASCSPC . . . . . . . . . . . . .  	Number	0020	
ASCTAB . . . . . . . . . . . . .  	Number	0009	

BAKCOM . . . . . . . . . . . . .  	L NEAR	0216	CSEG
BASDEB . . . . . . . . . . . . .  	Number	0000	
BCKUCM . . . . . . . . . . . . .  	L NEAR	021B	CSEG
BEEPSW . . . . . . . . . . . . .  	Number	0001	
Microsoft (R) Macro Assembler  Version 4.00                 7/13/20 11:20:05

FIVEO 5.0 Features -WHILE/WEND, CALL, CHAIN, WRITE /P. AllenSymbols-2
                                                             

BINCSW . . . . . . . . . . . . .  	Number	0000	
BINFID . . . . . . . . . . . . .  	Number	00FF	
BLODSW . . . . . . . . . . . . .  	Number	0001	
BLTUC  . . . . . . . . . . . . .  	L NEAR	0000	CSEG	External
BSVFID . . . . . . . . . . . . .  	Number	00FD	
BUFLEN . . . . . . . . . . . . .  	Number	00FF	

CASSW  . . . . . . . . . . . . .  	Number	0000	
CAYSTR . . . . . . . . . . . . .  	L NEAR	0332	CSEG
CAYVA2 . . . . . . . . . . . . .  	L NEAR	0309	CSEG
CAYVAR . . . . . . . . . . . . .  	L NEAR	030A	CSEG
CBAKBL . . . . . . . . . . . . .  	L NEAR	01F3	CSEG
CDVARS . . . . . . . . . . . . .  	L NEAR	033E	CSEG
CHAIN  . . . . . . . . . . . . .  	L NEAR	00A6	CSEG	Global
CHKCST . . . . . . . . . . . . .  	L NEAR	0249	CSEG
CHMWDL . . . . . . . . . . . . .  	L NEAR	0123	CSEG
CHNENT . . . . . . . . . . . . .  	L NEAR	0000	CSEG	External
CHNFLG . . . . . . . . . . . . .  	V WORD 	0000	DSEG	External
CHNLIN . . . . . . . . . . . . .  	V WORD 	0000	DSEG	External
CHNRET . . . . . . . . . . . . .  	L NEAR	03CA	CSEG	Global
CHRGTR . . . . . . . . . . . . .  	L NEAR	0000	CSEG	External
CHSEAT . . . . . . . . . . . . .  	Number	0001	
CLMWID . . . . . . . . . . . . .  	Number	000E	
CLPAKP . . . . . . . . . . . . .  	L NEAR	02C0	CSEG
CLPFIN . . . . . . . . . . . . .  	L NEAR	0250	CSEG
CLPSC1 . . . . . . . . . . . . .  	L NEAR	015F	CSEG
CLPSCN . . . . . . . . . . . . .  	L NEAR	0160	CSEG
CLPSLP . . . . . . . . . . . . .  	L NEAR	025D	CSEG
CMEPTR . . . . . . . . . . . . .  	V WORD 	0000	DSEG	External
CMPFBC . . . . . . . . . . . . .  	L NEAR	0000	CSEG	External
CMPUTN . . . . . . . . . . . . .  	Number	0000	
CMSPTR . . . . . . . . . . . . .  	V WORD 	0000	DSEG	External
COMADY . . . . . . . . . . . . .  	L NEAR	0229	CSEG
COMFNS . . . . . . . . . . . . .  	L NEAR	01EA	CSEG
COMMNT . . . . . . . . . . . . .  	Number	0000	
COMMON . . . . . . . . . . . . .  	L NEAR	044D	CSEG	Global
COMPT2 . . . . . . . . . . . . .  	L NEAR	01E6	CSEG
COMRP1 . . . . . . . . . . . . .  	L NEAR	0240	CSEG
COMRPN . . . . . . . . . . . . .  	L NEAR	023F	CSEG
CONSSW . . . . . . . . . . . . .  	Number	0001	
CONTO  . . . . . . . . . . . . .  	Number	000F	
CONTRO . . . . . . . . . . . . .  	Number	0001	
CPM  . . . . . . . . . . . . . .  	Number	0001	
CPM110 . . . . . . . . . . . . .  	Number	0000	
CPM2 . . . . . . . . . . . . . .  	Number	0001	
CPM86  . . . . . . . . . . . . .  	Number	0000	
CPMA75 . . . . . . . . . . . . .  	Number	0000	
CPMADD . . . . . . . . . . . . .  	Number	0000	
CPMCON . . . . . . . . . . . . .  	Number	0000	
CPMLIF . . . . . . . . . . . . .  	Number	0000	
CPMMDS . . . . . . . . . . . . .  	Number	0000	
CPMPER . . . . . . . . . . . . .  	Number	0000	
CPMRSH . . . . . . . . . . . . .  	Number	0000	
CPMSBC . . . . . . . . . . . . .  	Number	0000	
Microsoft (R) Macro Assembler  Version 4.00                 7/13/20 11:20:05

FIVEO 5.0 Features -WHILE/WEND, CALL, CHAIN, WRITE /P. AllenSymbols-3
                                                             

CPMSER . . . . . . . . . . . . .  	Number	0000	
CRDO . . . . . . . . . . . . . .  	L NEAR	0000	CSEG	External
CRLFSQ . . . . . . . . . . . . .  	Number	0002	
CRONLY . . . . . . . . . . . . .  	Number	0000	
CSKPVA . . . . . . . . . . . . .  	L NEAR	0301	CSEG
CSTSCN . . . . . . . . . . . . .  	L NEAR	0172	CSEG
CSVAR  . . . . . . . . . . . . .  	L NEAR	02EF	CSEG
CURLIN . . . . . . . . . . . . .  	V WORD 	0000	DSEG	External
C_BUFF . . . . . . . . . . . . .  	Number	001A	
C_CLOS . . . . . . . . . . . . .  	Number	0010	
C_DCIO . . . . . . . . . . . . .  	Number	0006	
C_DELE . . . . . . . . . . . . .  	Number	0013	
C_GDRV . . . . . . . . . . . . .  	Number	0019	
C_MAKE . . . . . . . . . . . . .  	Number	0016	
C_OPEN . . . . . . . . . . . . .  	Number	000F	
C_PARS . . . . . . . . . . . . .  	Number	0029	
C_PRTO . . . . . . . . . . . . .  	Number	0005	
C_RBR  . . . . . . . . . . . . .  	Number	0027	
C_READ . . . . . . . . . . . . .  	Number	0014	
C_RENA . . . . . . . . . . . . .  	Number	0017	
C_REST . . . . . . . . . . . . .  	Number	000D	
C_RNDR . . . . . . . . . . . . .  	Number	0021	
C_RNDW . . . . . . . . . . . . .  	Number	0022	
C_SDRV . . . . . . . . . . . . .  	Number	000E	
C_SEAR . . . . . . . . . . . . .  	Number	0011	

DATA . . . . . . . . . . . . . .  	L NEAR	0000	CSEG	External
DATOFS . . . . . . . . . . . . .  	Number	0039	
DATPSC . . . . . . . . . . . . .  	Number	0080	
DBLCHR . . . . . . . . . . . . .  	Number	0000	
DBLTRN . . . . . . . . . . . . .  	Number	0000	
DCOMPR . . . . . . . . . . . . .  	L NEAR	0000	CSEG	External
DEBUG  . . . . . . . . . . . . .  	Text  		
DEL  . . . . . . . . . . . . . .  	L NEAR	0000	CSEG	External
DEPTR  . . . . . . . . . . . . .  	L NEAR	0000	CSEG	External
DISK . . . . . . . . . . . . . .  	Number	0001	
DLSVLP . . . . . . . . . . . . .  	L NEAR	0296	CSEG
DMC  . . . . . . . . . . . . . .  	Number	0000	
DNCCLS . . . . . . . . . . . . .  	L NEAR	0370	CSEG
DNCMDA . . . . . . . . . . . . .  	L NEAR	02EB	CSEG
DNCMDS . . . . . . . . . . . . .  	L NEAR	02BC	CSEG
DOCOMM . . . . . . . . . . . . .  	L NEAR	0195	CSEG
DOS  . . . . . . . . . . . . . .  	Number	0000	
DRVPOS . . . . . . . . . . . . .  	Number	0000	
DUPONT . . . . . . . . . . . . .  	Number	0000	
DYNCOM . . . . . . . . . . . . .  	Number	0001	

EDIT80 . . . . . . . . . . . . .  	Number	0000	
ENDBUF . . . . . . . . . . . . .  	V WORD 	0000	DSEG	External
ENDFOR . . . . . . . . . . . . .  	V WORD 	0000	DSEG	External
ERROR  . . . . . . . . . . . . .  	L NEAR	0000	CSEG	External
ERRWE  . . . . . . . . . . . . .  	L NEAR	0000	CSEG	External
ERSFIN . . . . . . . . . . . . .  	L NEAR	0000	CSEG	External
ESCCTL . . . . . . . . . . . . .  	Number	0000	
Microsoft (R) Macro Assembler  Version 4.00                 7/13/20 11:20:05

FIVEO 5.0 Features -WHILE/WEND, CALL, CHAIN, WRITE /P. AllenSymbols-4
                                                             

EVAL . . . . . . . . . . . . . .  	L NEAR	0000	CSEG	External
EXIDY  . . . . . . . . . . . . .  	Number	0000	

FACLO  . . . . . . . . . . . . .  	V WORD 	0000	DSEG	External
FAST . . . . . . . . . . . . . .  	Number	0001	
FCBSIZ . . . . . . . . . . . . .  	Number	0026	
FCB_DT . . . . . . . . . . . . .  	Number	001D	
FCB_DV . . . . . . . . . . . . .  	Number	0007	
FCB_EX . . . . . . . . . . . . .  	Number	0013	
FCB_FN . . . . . . . . . . . . .  	Number	0008	
FCB_FS . . . . . . . . . . . . .  	Number	0017	
FCB_FT . . . . . . . . . . . . .  	Number	0010	
FCB_NR . . . . . . . . . . . . .  	Number	0027	
FCB_RC . . . . . . . . . . . . .  	Number	0015	
FCB_RN . . . . . . . . . . . . .  	Number	0028	
FCERR  . . . . . . . . . . . . .  	L NEAR	0000	CSEG	External
FCERRG . . . . . . . . . . . . .  	L NEAR	014A	CSEG
FC_ASC . . . . . . . . . . . . .  	Number	0000	
FC_BIN . . . . . . . . . . . . .  	Number	0001	
FDBSIZ . . . . . . . . . . . . .  	Number	0039	
FD_DAT . . . . . . . . . . . . .  	Number	00C2	
FD_LOG . . . . . . . . . . . . .  	Number	00BD	
FD_OPS . . . . . . . . . . . . .  	Number	00C0	
FD_PHY . . . . . . . . . . . . .  	Number	00BB	
FD_SIZ . . . . . . . . . . . . .  	Number	00B9	
FILGET . . . . . . . . . . . . .  	L NEAR	0000	CSEG	External
FINPRT . . . . . . . . . . . . .  	L NEAR	0000	CSEG	External
FIVDSK . . . . . . . . . . . . .  	Number	0001	
FIVEO  . . . . . . . . . . . . .  	Number	0001	
FIVLPT . . . . . . . . . . . . .  	Number	0001	
FIVMEM . . . . . . . . . . . . .  	Number	0001	
FKEYON . . . . . . . . . . . . .  	Number	0001	
FLSWHL . . . . . . . . . . . . .  	L NEAR	0067	CSEG
FL_BKC . . . . . . . . . . . . .  	Number	0080	
FNAML  . . . . . . . . . . . . .  	Number	000B	
FNDAAY . . . . . . . . . . . . .  	L NEAR	0209	CSEG
FNDLIN . . . . . . . . . . . . .  	L NEAR	0000	CSEG	External
FNDWN2 . . . . . . . . . . . . .  	L NEAR	007A	CSEG
FNDWN3 . . . . . . . . . . . . .  	L NEAR	008C	CSEG
FNDWND . . . . . . . . . . . . .  	L NEAR	0075	CSEG
FNWEND . . . . . . . . . . . . .  	L NEAR	0054	CSEG
FORSZC . . . . . . . . . . . . .  	L NEAR	0000	CSEG	External
FOUT . . . . . . . . . . . . . .  	L NEAR	0000	CSEG	External
FRETOP . . . . . . . . . . . . .  	V WORD 	0000	DSEG	External
FRMCHK . . . . . . . . . . . . .  	L NEAR	0000	CSEG	External
FRMEVL . . . . . . . . . . . . .  	L NEAR	0000	CSEG	External
FRQINT . . . . . . . . . . . . .  	L NEAR	0000	CSEG	External
F_BAKC . . . . . . . . . . . . .  	Number	0032	
F_BREM . . . . . . . . . . . . .  	Number	0030	
F_CLOC . . . . . . . . . . . . .  	Number	002D	
F_CODE . . . . . . . . . . . . .  	Number	0031	
F_DEV  . . . . . . . . . . . . .  	Number	0034	
F_FCB  . . . . . . . . . . . . .  	Number	0007	
F_FLGS . . . . . . . . . . . . .  	Number	0037	
Microsoft (R) Macro Assembler  Version 4.00                 7/13/20 11:20:05

FIVEO 5.0 Features -WHILE/WEND, CALL, CHAIN, WRITE /P. AllenSymbols-5
                                                             

F_MODE . . . . . . . . . . . . .  	Number	0006	
F_NEXT . . . . . . . . . . . . .  	Number	0004	
F_NUL1 . . . . . . . . . . . . .  	Number	0000	
F_NUL2 . . . . . . . . . . . . .  	Number	0002	
F_NUL3 . . . . . . . . . . . . .  	Number	0033	
F_NUL4 . . . . . . . . . . . . .  	Number	0036	
F_NUL5 . . . . . . . . . . . . .  	Number	00BF	
F_NUM  . . . . . . . . . . . . .  	Number	0001	
F_ORCT . . . . . . . . . . . . .  	Number	002F	
F_POS  . . . . . . . . . . . . .  	Number	0038	
F_WID  . . . . . . . . . . . . .  	Number	0035	

GARBA2 . . . . . . . . . . . . .  	L NEAR	0000	CSEG	External
GENBIN . . . . . . . . . . . . .  	Number	0001	
GENDSK . . . . . . . . . . . . .  	Number	0000	
GENIO  . . . . . . . . . . . . .  	Number	0001	
GESBC  . . . . . . . . . . . . .  	Number	0000	
GETSTK . . . . . . . . . . . . .  	L NEAR	0000	CSEG	External
GETYPR . . . . . . . . . . . . .  	L NEAR	0000	CSEG	External
GIO86  . . . . . . . . . . . . .  	Number	0001	
GW . . . . . . . . . . . . . . .  	Number	0001	
GWCASS . . . . . . . . . . . . .  	Number	0000	
GWDBUG . . . . . . . . . . . . .  	Number	0000	
G_BIN  . . . . . . . . . . . . .  	Number	001A	
G_BOT  . . . . . . . . . . . . .  	Number	001C	
G_CLS  . . . . . . . . . . . . .  	Number	0006	
G_EOF  . . . . . . . . . . . . .  	Number	0000	
G_GCW  . . . . . . . . . . . . .  	Number	0018	
G_GPS  . . . . . . . . . . . . .  	Number	0012	
G_GWD  . . . . . . . . . . . . .  	Number	0014	
G_LOC  . . . . . . . . . . . . .  	Number	0002	
G_LOF  . . . . . . . . . . . . .  	Number	0004	
G_OPN  . . . . . . . . . . . . .  	Number	000C	
G_RND  . . . . . . . . . . . . .  	Number	000A	
G_SCW  . . . . . . . . . . . . .  	Number	0016	
G_SIN  . . . . . . . . . . . . .  	Number	000E	
G_SOT  . . . . . . . . . . . . .  	Number	0010	
G_SWD  . . . . . . . . . . . . .  	Number	0008	

HEATH  . . . . . . . . . . . . .  	Number	0000	
HEXOCT . . . . . . . . . . . . .  	Number	0001	
HGHBIT . . . . . . . . . . . . .  	Number	0001	

I8086  . . . . . . . . . . . . .  	Number	0001	
I8251  . . . . . . . . . . . . .  	Number	0000	
IADAHL . . . . . . . . . . . . .  	L NEAR	0000	CSEG	External
IBMLIK . . . . . . . . . . . . .  	Number	0001	
IBMTOK . . . . . . . . . . . . .  	Number	0001	
INKEYF . . . . . . . . . . . . .  	Number	0001	
INLADD . . . . . . . . . . . . .  	Number	0000	
INSTSW . . . . . . . . . . . . .  	Number	0000	
INTEL  . . . . . . . . . . . . .  	Number	0000	
INTFHW . . . . . . . . . . . . .  	Number	0000	
INTFSW . . . . . . . . . . . . .  	Number	0000	
Microsoft (R) Macro Assembler  Version 4.00                 7/13/20 11:20:05

FIVEO 5.0 Features -WHILE/WEND, CALL, CHAIN, WRITE /P. AllenSymbols-6
                                                             

INTLEC . . . . . . . . . . . . .  	Number	0000	
INTROM . . . . . . . . . . . . .  	Number	0000	
ISC  . . . . . . . . . . . . . .  	Number	0000	
ISIS . . . . . . . . . . . . . .  	Number	0000	

JISKTN . . . . . . . . . . . . .  	Number	0000	

KANABS . . . . . . . . . . . . .  	Number	0000	
KANJFN . . . . . . . . . . . . .  	Number	0000	
KEYSTA . . . . . . . . . . . . .  	Number	0000	
KILLER . . . . . . . . . . . . .  	Number	0000	

LABEL  . . . . . . . . . . . . .  	Number	0000	
LABKEY . . . . . . . . . . . . .  	Number	0001	
LEN2 . . . . . . . . . . . . . .  	Number	0001	
LEN3 . . . . . . . . . . . . . .  	Number	0001	
LENGTH . . . . . . . . . . . . .  	Number	0002	
LINGET . . . . . . . . . . . . .  	L NEAR	0000	CSEG	External
LINKER . . . . . . . . . . . . .  	L NEAR	0000	CSEG	External
LINLN  . . . . . . . . . . . . .  	Number	0050	
LISTEN . . . . . . . . . . . . .  	Number	0001	
LNGVAR . . . . . . . . . . . . .  	Number	0001	
LOKHED . . . . . . . . . . . . .  	Number	0000	
LONGI  . . . . . . . . . . . . .  	Number	0000	
LPBKNC . . . . . . . . . . . . .  	L NEAR	01F4	CSEG
LPT3 . . . . . . . . . . . . . .  	Number	0000	
LPTLEN . . . . . . . . . . . . .  	Number	0084	
LPTSW  . . . . . . . . . . . . .  	Number	0001	

MDLFLG . . . . . . . . . . . . .  	V WORD 	0000	DSEG	External
MDS  . . . . . . . . . . . . . .  	Number	0000	
MDSISS . . . . . . . . . . . . .  	Number	0000	
MD_APP . . . . . . . . . . . . .  	Number	0008	
MD_RND . . . . . . . . . . . . .  	Number	0004	
MD_SQI . . . . . . . . . . . . .  	Number	0001	
MD_SQO . . . . . . . . . . . . .  	Number	0002	
MEMIMG . . . . . . . . . . . . .  	Number	0001	
MOSTEK . . . . . . . . . . . . .  	Number	0000	
MOVE1  . . . . . . . . . . . . .  	L NEAR	0000	CSEG	External
MRGFLG . . . . . . . . . . . . .  	V WORD 	0000	DSEG	External
MULSEG . . . . . . . . . . . . .  	Number	0001	
MVBKVR . . . . . . . . . . . . .  	L NEAR	03FD	CSEG

NAMLEN . . . . . . . . . . . . .  	Number	0028	
NASCOM . . . . . . . . . . . . .  	Number	0000	
NATROM . . . . . . . . . . . . .  	Number	0000	
NBANKS . . . . . . . . . . . . .  	Number	0001	
NCRBAS . . . . . . . . . . . . .  	Number	0000	
NCRCAS . . . . . . . . . . . . .  	Number	0000	
NCRDEB . . . . . . . . . . . . .  	Number	0000	
NCRELS . . . . . . . . . . . . .  	Number	0000	
NCRLPT . . . . . . . . . . . . .  	Number	0001	
NECBAS . . . . . . . . . . . . .  	Number	0000	
NEWSTT . . . . . . . . . . . . .  	L NEAR	0000	CSEG	External
Microsoft (R) Macro Assembler  Version 4.00                 7/13/20 11:20:05

FIVEO 5.0 Features -WHILE/WEND, CALL, CHAIN, WRITE /P. AllenSymbols-7
                                                             

NLONLY . . . . . . . . . . . . .  	V WORD 	0000	DSEG	External
NMCOMT . . . . . . . . . . . . .  	Number	0002	
NMKEYF . . . . . . . . . . . . .  	Number	000A	
NMKEYT . . . . . . . . . . . . .  	Number	000E	
NMLINE . . . . . . . . . . . . .  	Number	0019	
NMLPT  . . . . . . . . . . . . .  	Number	0003	
NMPENT . . . . . . . . . . . . .  	Number	0001	
NMSTRT . . . . . . . . . . . . .  	Number	0004	
NOARYS . . . . . . . . . . . . .  	L NEAR	0000	CSEG	External
NOATDL . . . . . . . . . . . . .  	Number	0000	
NOCOMM . . . . . . . . . . . . .  	L NEAR	018C	CSEG
NOCTLA . . . . . . . . . . . . .  	Number	0000	
NODOT  . . . . . . . . . . . . .  	Number	0000	
NOEDIT . . . . . . . . . . . . .  	Number	0000	
NOIOS  . . . . . . . . . . . . .  	Number	0000	
NONULL . . . . . . . . . . . . .  	Number	0000	
NOPEKS . . . . . . . . . . . . .  	Number	0000	
NOROMP . . . . . . . . . . . . .  	Number	0000	
NORUBT . . . . . . . . . . . . .  	Number	0000	
NOUSR  . . . . . . . . . . . . .  	Number	0000	
NOVARP . . . . . . . . . . . . .  	Number	0000	
NTCHAL . . . . . . . . . . . . .  	L NEAR	0155	CSEG
NTCHNM . . . . . . . . . . . . .  	L NEAR	00C7	CSEG
NTFN2T . . . . . . . . . . . . .  	L NEAR	01C0	CSEG
NTLINF . . . . . . . . . . . . .  	L NEAR	00FA	CSEG
NTMDLT . . . . . . . . . . . . .  	L NEAR	03B8	CSEG
NTRNDW . . . . . . . . . . . . .  	L NEAR	04FF	CSEG
NUMLEV . . . . . . . . . . . . .  	Number	006E	
NUMTMP . . . . . . . . . . . . .  	Number	000A	
NUMTRP . . . . . . . . . . . . .  	Number	0015	
NXTCOM . . . . . . . . . . . . .  	L NEAR	019A	CSEG
NXTLIN . . . . . . . . . . . . .  	V WORD 	0000	DSEG	External
NXTWRV . . . . . . . . . . . . .  	L NEAR	0486	CSEG
NXTWSP . . . . . . . . . . . . .  	L NEAR	04F3	CSEG

OEMRAM . . . . . . . . . . . . .  	Number	0000	
OKGETM . . . . . . . . . . . . .  	L NEAR	0000	CSEG	External
OKI  . . . . . . . . . . . . . .  	Number	0000	
OMERR  . . . . . . . . . . . . .  	L NEAR	0000	CSEG	External
ONTEL  . . . . . . . . . . . . .  	Number	0000	
OPTFLG . . . . . . . . . . . . .  	V WORD 	0000	DSEG	External
OPTVAL . . . . . . . . . . . . .  	V WORD 	0000	DSEG	External
OUTDO  . . . . . . . . . . . . .  	L NEAR	0000	CSEG	External

PALSIZ . . . . . . . . . . . . .  	Number	0000	
PANBAS . . . . . . . . . . . . .  	Number	0000	
PC8A . . . . . . . . . . . . . .  	Number	0000	
PCS  . . . . . . . . . . . . . .  	Number	0000	
PLAYSW . . . . . . . . . . . . .  	Number	0001	
PRGFLI . . . . . . . . . . . . .  	L NEAR	0000	CSEG	External
PROFID . . . . . . . . . . . . .  	Number	00FE	
PTRFIL . . . . . . . . . . . . .  	V WORD 	0000	DSEG	External
PTRGET . . . . . . . . . . . . .  	L NEAR	0000	CSEG	External
PTRGTN . . . . . . . . . . . . .  	L NEAR	0000	CSEG	External
Microsoft (R) Macro Assembler  Version 4.00                 7/13/20 11:20:05

FIVEO 5.0 Features -WHILE/WEND, CALL, CHAIN, WRITE /P. AllenSymbols-8
                                                             

PTRGTR . . . . . . . . . . . . .  	L NEAR	0000	CSEG	External
PURE . . . . . . . . . . . . . .  	Number	0001	

QUEUE  . . . . . . . . . . . . .  	Number	0001	

REALIO . . . . . . . . . . . . .  	Number	0001	
RESTORE  . . . . . . . . . . . .  	L NEAR	0000	CSEG	External
RMX  . . . . . . . . . . . . . .  	Number	0000	
RSHACK . . . . . . . . . . . . .  	Number	0000	
RSTLES . . . . . . . . . . . . .  	Number	0001	

SAVFRE . . . . . . . . . . . . .  	V WORD 	0000	DSEG	External
SAVSTK . . . . . . . . . . . . .  	V WORD 	0000	DSEG	External
SBC  . . . . . . . . . . . . . .  	Number	0000	
SBC86  . . . . . . . . . . . . .  	Number	0000	
SCNLIN . . . . . . . . . . . . .  	L NEAR	0000	CSEG	External
SCNSMP . . . . . . . . . . . . .  	L NEAR	01C8	CSEG
SCP  . . . . . . . . . . . . . .  	Number	0001	
SCRN86 . . . . . . . . . . . . .  	Number	0001	
SCRNIO . . . . . . . . . . . . .  	Number	0001	
SCROLT . . . . . . . . . . . . .  	Number	0001	
SCRTCH . . . . . . . . . . . . .  	L NEAR	0000	CSEG	External
SGSATS . . . . . . . . . . . . .  	Number	0000	
SHORTJ . . . . . . . . . . . . .  	Number	0001	
SHTCHN . . . . . . . . . . . . .  	Number	0000	
SHTERR . . . . . . . . . . . . .  	Number	0000	
SHTINS . . . . . . . . . . . . .  	Number	0000	
SHTLHM . . . . . . . . . . . . .  	Number	0000	
SHTLIN . . . . . . . . . . . . .  	Number	0000	
SHTPRO . . . . . . . . . . . . .  	Number	0000	
SHTREN . . . . . . . . . . . . .  	Number	0000	
SIXDIG . . . . . . . . . . . . .  	Number	0000	
SKPCOM . . . . . . . . . . . . .  	L NEAR	021C	CSEG
SKPNAM . . . . . . . . . . . . .  	L NEAR	0440	CSEG	Global
SMALL  . . . . . . . . . . . . .  	Number	0000	
SNERR  . . . . . . . . . . . . .  	L NEAR	0000	CSEG	External
SPCDSK . . . . . . . . . . . . .  	Number	0000	
SPCNDS . . . . . . . . . . . . .  	Number	0000	
STRCPY . . . . . . . . . . . . .  	L NEAR	0000	CSEG	External
STREND . . . . . . . . . . . . .  	V WORD 	0000	DSEG	External
STRING . . . . . . . . . . . . .  	Number	0001	
STRLIT . . . . . . . . . . . . .  	L NEAR	0000	CSEG	External
STRPRT . . . . . . . . . . . . .  	L NEAR	0000	CSEG	External
STRSIZ . . . . . . . . . . . . .  	Number	0003	
SUBFLG . . . . . . . . . . . . .  	V WORD 	0000	DSEG	External
SUPRSH . . . . . . . . . . . . .  	Number	0001	
SWAPSW . . . . . . . . . . . . .  	Number	0001	
SYNCHR . . . . . . . . . . . . .  	L NEAR	0000	CSEG	External

TEK  . . . . . . . . . . . . . .  	Number	0000	
TEMP . . . . . . . . . . . . . .  	V WORD 	0000	DSEG	External
TEMP3  . . . . . . . . . . . . .  	V WORD 	0000	DSEG	External
TEMP9  . . . . . . . . . . . . .  	V WORD 	0000	DSEG	External
TIMSHR . . . . . . . . . . . . .  	Number	0000	
Microsoft (R) Macro Assembler  Version 4.00                 7/13/20 11:20:05

FIVEO 5.0 Features -WHILE/WEND, CALL, CHAIN, WRITE /P. AllenSymbols-9
                                                             

TOPTFG . . . . . . . . . . . . .  	V WORD 	0000	DSEG	External
TOPTVL . . . . . . . . . . . . .  	V WORD 	0000	DSEG	External
TRNCHR . . . . . . . . . . . . .  	Number	0000	
TRSER2 . . . . . . . . . . . . .  	Number	0000	
TRUANS . . . . . . . . . . . . .  	Number	0000	
TRUROM . . . . . . . . . . . . .  	Number	0001	
TSDISK . . . . . . . . . . . . .  	Number	0000	
TSHIBA . . . . . . . . . . . . .  	Number	0000	
TSLPT  . . . . . . . . . . . . .  	Number	0000	
TXTTAB . . . . . . . . . . . . .  	V WORD 	0000	DSEG	External

USERR  . . . . . . . . . . . . .  	L NEAR	0000	CSEG	External

VALTYP . . . . . . . . . . . . .  	V WORD 	0000	DSEG	External
VARDL1 . . . . . . . . . . . . .  	L NEAR	0292	CSEG
VARDLS . . . . . . . . . . . . .  	L NEAR	0290	CSEG
VARTAB . . . . . . . . . . . . .  	V WORD 	0000	DSEG	External
VMOVFM . . . . . . . . . . . . .  	L NEAR	0000	CSEG	External
VSIGN  . . . . . . . . . . . . .  	L NEAR	0000	CSEG	External

WASEMI . . . . . . . . . . . . .  	L NEAR	0496	CSEG
WEERR  . . . . . . . . . . . . .  	L NEAR	00A0	CSEG
WEND . . . . . . . . . . . . . .  	L NEAR	002C	CSEG	Global
WHILE  . . . . . . . . . . . . .  	L NEAR	0000	CSEG	Global
WHLSIZ . . . . . . . . . . . . .  	Number	0007	
WNDSCN . . . . . . . . . . . . .  	L NEAR	0000	CSEG	External
WNOTOL . . . . . . . . . . . . .  	L NEAR	001F	CSEG
WRITE  . . . . . . . . . . . . .  	L NEAR	0450	CSEG	Global
WRTCHR . . . . . . . . . . . . .  	L NEAR	0455	CSEG
WRTFIN . . . . . . . . . . . . .  	L NEAR	04AF	CSEG
WRTMLP . . . . . . . . . . . . .  	L NEAR	045B	CSEG
WRTNEG . . . . . . . . . . . . .  	L NEAR	0483	CSEG
WRTSTR . . . . . . . . . . . . .  	L NEAR	04A0	CSEG

XTNSYS . . . . . . . . . . . . .  	Number	0000	

Z80  . . . . . . . . . . . . . .  	Number	0001	
Z80MAC . . . . . . . . . . . . .  	Number	0001	

$COMMON  . . . . . . . . . . . .  	L NEAR	0000	CSEG	External
$DELETE  . . . . . . . . . . . .  	L NEAR	0000	CSEG	External
$FOR . . . . . . . . . . . . . .  	L NEAR	0000	CSEG	External
$MERGE . . . . . . . . . . . . .  	L NEAR	0000	CSEG	External
$WHILE . . . . . . . . . . . . .  	L NEAR	0000	CSEG	External
??L000 . . . . . . . . . . . . .  	L NEAR	0031	CSEG
??L001 . . . . . . . . . . . . .  	L NEAR	00E0	CSEG
??L002 . . . . . . . . . . . . .  	L NEAR	0116	CSEG
??L003 . . . . . . . . . . . . .  	L NEAR	0121	CSEG
??L004 . . . . . . . . . . . . .  	L NEAR	014F	CSEG
??L005 . . . . . . . . . . . . .  	L NEAR	0155	CSEG
??L006 . . . . . . . . . . . . .  	L NEAR	016A	CSEG
??L007 . . . . . . . . . . . . .  	L NEAR	01FF	CSEG
??L008 . . . . . . . . . . . . .  	L NEAR	0225	CSEG
??L009 . . . . . . . . . . . . .  	L NEAR	023D	CSEG
Microsoft (R) Macro Assembler  Version 4.00                 7/13/20 11:20:05

FIVEO 5.0 Features -WHILE/WEND, CALL, CHAIN, WRITE /P. AllenSymbols-10
                                                             

??L010 . . . . . . . . . . . . .  	L NEAR	0249	CSEG
??L011 . . . . . . . . . . . . .  	L NEAR	027D	CSEG
??L012 . . . . . . . . . . . . .  	L NEAR	02E2	CSEG
??L013 . . . . . . . . . . . . .  	L NEAR	03C7	CSEG
??L014 . . . . . . . . . . . . .  	L NEAR	0432	CSEG
??L015 . . . . . . . . . . . . .  	L NEAR	043A	CSEG
??L016 . . . . . . . . . . . . .  	L NEAR	04CA	CSEG
_OFFST . . . . . . . . . . . . .  	Number	00C2	


   1345 Source  Lines
   1441 Total   Lines
    478 Symbols

  35348 Bytes symbol space free

      0 Warning Errors
      0 Severe  Errors
