

Warning: no stack segment

 Start  Stop   Length Name                   Class
 00000H 0043CH 0043DH CODE                   CODE
 00440H 0047DH 0003EH CODE2                  CODE
 00480H 004BDH 0003EH CODE3                  CODE
 004C0H 004FDH 0003EH CODE4                  CODE
 00500H 00573H 00074H INIT                   CODE
 00580H 0058FH 00010H DATA                   DATA

 Origin   Group
 0000:0   DEV

  Address         Publics by Name

 0000:02C1       ADD_PACKET
 0000:001C       CARD_NUM
 0000:045C       CARD_NUM2
 0000:049C       CARD_NUM3
 0000:04DC       CARD_NUM4
 0000:0022       CMDTBL
 0000:000F  Abs  CMDTBL_SIZE
 0000:0000       COM1
 0000:043D       COM1_END
 0000:0440       COM2
 0000:047E       COM2_END
 0000:0480       COM3
 0000:04BE       COM3_END
 0000:04C0       COM4
 0000:04FE       COM4_END
 0000:0040       COM_PARMS
 0000:001A       CT_SEG
 0000:045A       CT_SEG2
 0000:049A       CT_SEG3
 0000:04DA       CT_SEG4
 0000:01D6       DDCOM_CLOSE
 0000:0067       DDCOM_CMD
 0000:0012       DDCOM_CMDP
 0000:0452       DDCOM_CMDP2
 0000:0492       DDCOM_CMDP3
 0000:04D2       DDCOM_CMDP4
 0000:0500       DDCOM_INIT
 0000:0574       DDCOM_INIT_END
 0000:020D       DDCOM_INT
 0000:02B6       DDCOM_INT1
 0000:0473       DDCOM_INT2
 0000:04B3       DDCOM_INT3
 0000:04F3       DDCOM_INT4
 0000:0016       DDCOM_INTP
 0000:0456       DDCOM_INTP2
 0000:0496       DDCOM_INTP3
 0000:04D6       DDCOM_INTP4
 0000:0205       DDCOM_NONE
 0000:010A       DDCOM_OPEN
 0000:007F       DDCOM_READ
 0000:0052       DDCOM_REQ
 0000:045E       DDCOM_REQ2
 0000:049E       DDCOM_REQ3
 0000:04DE       DDCOM_REQ4
 0000:00C1       DDCOM_WRITE
 0000:02E3       GET_PARMS
 0000:0307       PEEK_BUFFER
 0000:0319       PULL_BUFFER
 0000:0362       PULL_INPUT
 0000:0396       PULL_OUTPUT
 0000:033C       PUSH_BUFFER
 0000:0381       PUSH_INPUT
 0000:03A9       PUSH_OUTPUT
 0000:03D1       READ_IIR
 0000:03DA       READ_LSR
 0000:03E3       READ_RBR
 0000:001E       WAIT_PTR
 0000:042F       WRITE_CONTEXT
 0000:03F7       WRITE_IER
 0000:040C       WRITE_IRQ
 0000:03E9       WRITE_MCR
 0000:0429       WRITE_THR

  Address         Publics by Value

 0000:0000       COM1
 0000:000F  Abs  CMDTBL_SIZE
 0000:0012       DDCOM_CMDP
 0000:0016       DDCOM_INTP
 0000:001A       CT_SEG
 0000:001C       CARD_NUM
 0000:001E       WAIT_PTR
 0000:0022       CMDTBL
 0000:0040       COM_PARMS
 0000:0052       DDCOM_REQ
 0000:0067       DDCOM_CMD
 0000:007F       DDCOM_READ
 0000:00C1       DDCOM_WRITE
 0000:010A       DDCOM_OPEN
 0000:01D6       DDCOM_CLOSE
 0000:0205       DDCOM_NONE
 0000:020D       DDCOM_INT
 0000:02B6       DDCOM_INT1
 0000:02C1       ADD_PACKET
 0000:02E3       GET_PARMS
 0000:0307       PEEK_BUFFER
 0000:0319       PULL_BUFFER
 0000:033C       PUSH_BUFFER
 0000:0362       PULL_INPUT
 0000:0381       PUSH_INPUT
 0000:0396       PULL_OUTPUT
 0000:03A9       PUSH_OUTPUT
 0000:03D1       READ_IIR
 0000:03DA       READ_LSR
 0000:03E3       READ_RBR
 0000:03E9       WRITE_MCR
 0000:03F7       WRITE_IER
 0000:040C       WRITE_IRQ
 0000:0429       WRITE_THR
 0000:042F       WRITE_CONTEXT
 0000:043D       COM1_END
 0000:0440       COM2
 0000:0452       DDCOM_CMDP2
 0000:0456       DDCOM_INTP2
 0000:045A       CT_SEG2
 0000:045C       CARD_NUM2
 0000:045E       DDCOM_REQ2
 0000:0473       DDCOM_INT2
 0000:047E       COM2_END
 0000:0480       COM3
 0000:0492       DDCOM_CMDP3
 0000:0496       DDCOM_INTP3
 0000:049A       CT_SEG3
 0000:049C       CARD_NUM3
 0000:049E       DDCOM_REQ3
 0000:04B3       DDCOM_INT3
 0000:04BE       COM3_END
 0000:04C0       COM4
 0000:04D2       DDCOM_CMDP4
 0000:04D6       DDCOM_INTP4
 0000:04DA       CT_SEG4
 0000:04DC       CARD_NUM4
 0000:04DE       DDCOM_REQ4
 0000:04F3       DDCOM_INT4
 0000:04FE       COM4_END
 0000:0500       DDCOM_INIT
 0000:0574       DDCOM_INIT_END
