

Warning: no stack segment

 Start  Stop   Length Name                   Class
 00000H 0C5D4H 0C5D5H CSEG                   CODESG
 0C5E0H 0CE9FH 008C0H DSEG                   DATASG

  Address         Publics by Name

 0000:0086  Abs  $ABS
 0000:00EE  Abs  $AND
 0C5E:05F9       $ARG
 0C5E:05F2       $ARGLO
 0000:0095  Abs  $ASC
 0000:008E  Abs  $ATN
 0000:00AA  Abs  $AUTO
 0000:00C5  Abs  $BEEP
 0000:00C3  Abs  $BLOAD
 0000:00C2  Abs  $BSAVE
 0000:00B3  Abs  $CALL
 0000:00A1  Abs  $CALLS
 0000:8953       $CATTY
 0000:009E  Abs  $CDBL
 0000:001D  Abs  $CDBLF
 0000:B928       $CDS
 0000:008C  Abs  $CHAIN
 0000:0097  Abs  $CHDIR
 0000:0096  Abs  $CHR$
 0000:0015  Abs  $CHRFN
 0000:009C  Abs  $CINT
 0000:0091  Abs  $CIRCLE
 0000:0092  Abs  $CLEAR
 0000:00BB  Abs  $CLOSE
 0000:1812       $CLROV
 0000:00C0  Abs  $CLS
 0000:00BF  Abs  $COLOR
 0000:0090  Abs  $COM
 0000:FE90  Abs  $COM2B
 0000:008B  Abs  $COMMON
 0000:0099  Abs  $CONT
 0000:008C  Abs  $COS
 0000:B8FB       $CSD
 0000:B936       $CSI
 0000:009D  Abs  $CSNG
 0000:001C  Abs  $CSNGF
 0000:00DB  Abs  $CSRLIN
 0000:0083  Abs  $CVD
 0000:0081  Abs  $CVI
 0000:0082  Abs  $CVS
 0000:0084  Abs  $DATA
 0000:004A  Abs  $DATCO
 0000:C35E       $DATE
 0000:008D  Abs  $DATE$
 0C5E:05BE       $DBUFF
 0000:AC20       $DCMPA
 0000:0097  Abs  $DEF
 0000:00AF  Abs  $DEFDBL
 0000:00AD  Abs  $DEFINT
 0000:00AE  Abs  $DEFSNG
 0000:00AC  Abs  $DEFSTR
 0000:00A9  Abs  $DELETE
 0C5E:05E5       $DFACL
 0000:0086  Abs  $DIM
 0000:01E6       $DIV0M
 0000:A8D7       $DIV0S
 0C5E:0488       $DPADR
 0000:0092  Abs  $DRAW
 0000:009F  Abs  $DUMMY
 0000:A9F8       $DZERO
 0000:00A6  Abs  $EDIT
 0000:00A1  Abs  $ELSE
 0000:0081  Abs  $END
 0000:009B  Abs  $ENVIRON
 0000:00A3  Abs  $EOF
 0000:00F1  Abs  $EQV
 0000:00A5  Abs  $ERASE
 0000:0095  Abs  $ERDEV
 0000:00D4  Abs  $ERL
 0000:00D5  Abs  $ERR
 0000:00A7  Abs  $ERROR
 0000:008B  Abs  $EXP
 0000:A696       $EXPCN
 0C5E:05EC       $FAC
 0C5E:05E9       $FACLO
 0C5E:05EB       $FACM1
 0000:B4F0       $FADDS
 0C5E:05FA       $FBUFF
 0000:0EAC       $FCERR
 0000:AB91       $FCOMP
 0000:B727       $FDIVS
 0000:B942       $FI
 0000:0082  Abs  $FIELD
 0000:0081  Abs  $FILES
 0000:009F  Abs  $FIX
 0000:1808       $FLGOC
 0C5E:05EE       $FLGOV
 0000:B99F       $FLT
 0C5E:05C9       $FMTAL
 0C5E:05C9       $FMTAX
 0C5E:05C7       $FMTCX
 0000:BA6E       $FMULS
 0000:00D1  Abs  $FN
 0000:0082  Abs  $FOR
 0000:A150       $FOTCI
 0000:BC9C       $FOUT2
 0000:A186       $FOUTH
 0000:A17E       $FOUTO
 0000:AE7A       $FPWR
 0000:008F  Abs  $FRE
 0000:B8EA       $FS
 0000:B428       $FSUBD
 0000:B4E4       $FSUBS
 0000:0089  Abs  $GET
 0000:AA3F       $GETYP
 0000:008D  Abs  $GOSUB
 0000:0089  Abs  $GOTO
 0000:009A  Abs  $HEX$
 0000:008B  Abs  $IF
 0000:00F2  Abs  $IMP
 0000:00DE  Abs  $INKEY$
 0000:0090  Abs  $INP
 0000:0085  Abs  $INPUT
 0000:00D8  Abs  $INSTR
 0000:0085  Abs  $INT
 0000:0096  Abs  $IOCTL
 0000:0088  Abs  $JIS
 0000:00C9  Abs  $KEY
 0000:00C9  Abs  $KEY2B
 0000:0087  Abs  $KILL
 0000:008A  Abs  $KLEN
 0000:0089  Abs  $KPOS
 0000:0087  Abs  $KTN
 0000:C5BB       $LAST
 0000:00A0  Abs  $LCOPY
 0000:0081  Abs  $LEFT$
 0000:0092  Abs  $LEN
 0000:0088  Abs  $LET
 0000:00B0  Abs  $LINE
 0000:0093  Abs  $LIST
 0000:009E  Abs  $LLIST
 0000:00BC  Abs  $LOAD
 0000:00A4  Abs  $LOC
 0000:00CA  Abs  $LOCATE
 0000:00A5  Abs  $LOF
 0000:008A  Abs  $LOG
 0000:A5F5       $LOGP
 0000:009B  Abs  $LPOS
 0000:009D  Abs  $LPRINT
 0000:0085  Abs  $LSET
 0000:00BD  Abs  $MERGE
 0000:0083  Abs  $MID$
 0000:0086  Abs  $MKD$
 0000:0098  Abs  $MKDIR
 0000:0084  Abs  $MKI$
 0000:0085  Abs  $MKS$
 0000:00F3  Abs  $MOD
 0000:00C1  Abs  $MOTOR
 0000:AB4B       $MOVFA
 0000:ACF2       $MOVFM
 0000:AB56       $MOVFR
 0000:ACD9       $MOVMF
 0000:AB5F       $MOVRF
 0000:0084  Abs  $NAME
 0000:AC75       $NEG
 0000:0094  Abs  $NEW
 0000:0083  Abs  $NEXT
 0000:BDEA       $NORMD
 0000:BE35       $NORMS
 0000:00D3  Abs  $NOT
 0000:0099  Abs  $OCT$
 0000:00DD  Abs  $OFF
 0000:1B07       $OHCNS
 0000:0095  Abs  $ON
 0000:00BA  Abs  $OPEN
 0000:00B8  Abs  $OPTION
 0000:00EF  Abs  $OR
 0000:009C  Abs  $OUT
 0000:05D6       $OVERR
 0000:018D       $OVMSG
 0000:008F  Abs  $PAINT
 0000:009F  Abs  $PALETTE
 0000:0097  Abs  $PEEK
 0000:00A0  Abs  $PEN
 0000:FFA0  Abs  $PEN2B
 0000:0093  Abs  $PLAY
 0000:009E  Abs  $PMAP
 0000:00DC  Abs  $POINT
 0000:0098  Abs  $POKE
 0000:AD1D       $POPA
 0000:0091  Abs  $POS
 0000:00C7  Abs  $PRESET
 0000:0091  Abs  $PRINT
 0000:00C6  Abs  $PSET
 0000:0088  Abs  $PUT
 0000:00B9  Abs  $RANDOMIZE
 0000:0087  Abs  $READ
 0000:008F  Abs  $REM
 0000:0055  Abs  $REMCO
 0000:00AB  Abs  $RENUM
 0000:008A  Abs  $RESET
 0000:008C  Abs  $RESTORE
 0000:00A8  Abs  $RESUME
 0000:008E  Abs  $RETURN
 0000:0082  Abs  $RIGHT$
 0000:0099  Abs  $RMDIR
 0000:0088  Abs  $RND
 0000:0007  Abs  $RNDFN
 0C5E:0110       $RNDX
 0000:0086  Abs  $RSET
 0000:008A  Abs  $RUN
 0000:00BE  Abs  $SAVE
 0000:00C8  Abs  $SCREEN
 0000:0084  Abs  $SGN
 0000:009A  Abs  $SHELL
 0000:AA0F       $SIGNS
 0000:0089  Abs  $SIN
 0000:05C4       $SNERR
 0000:00C4  Abs  $SOUND
 0000:0098  Abs  $SPACE$
 0000:00D2  Abs  $SPC
 0000:0087  Abs  $SQR
 0000:0100       $START
 0000:00CF  Abs  $STEP
 0000:00A1  Abs  $STICK
 0000:0090  Abs  $STOP
 0000:16E3       $STPRN
 0000:0093  Abs  $STR$
 0000:FFA2  Abs  $STR2B
 0000:00A2  Abs  $STRIG
 0000:00D6  Abs  $STRING$
 0000:00A4  Abs  $SWAP
 0000:0083  Abs  $SYSTEM
 0000:00CE  Abs  $TAB
 0000:008D  Abs  $TAN
 0000:00CD  Abs  $THEN
 0000:008E  Abs  $TIME$
 0000:0094  Abs  $TIMER
 0000:05DC       $TMERR
 0000:00CC  Abs  $TO
 0000:00A3  Abs  $TROFF
 0000:00A2  Abs  $TRON
 0000:00D7  Abs  $USING
 0000:00D0  Abs  $USR
 0000:0094  Abs  $VAL
 0C5E:042E       $VALTP
 0000:00DA  Abs  $VARPTR
 0000:009C  Abs  $VIEW
 0000:AD3F       $VINT
 0000:AD06       $VPSHF
 0000:0096  Abs  $WAIT
 0000:00B2  Abs  $WEND
 0000:00B1  Abs  $WHILE
 0000:00A0  Abs  $WIDTH
 0000:009D  Abs  $WINDOW
 0000:00B7  Abs  $WRITE
 0000:00F0  Abs  $XOR
 0C5E:05DB       $Z1
 0C5E:05D4       $Z1LO
 0C5E:05CC       $ZLO
 0C5E:05D3       $ZX
 0000:00F9  Abs  $_COM1
 0000:00F8  Abs  $_COM2
 0000:00FD  Abs  $_CONS
 0000:00FF  Abs  $_KYBD
 0000:00FC  Abs  $_LPT1
 0000:00FB  Abs  $_LPT2
 0000:00FA  Abs  $_LPT3
 0000:0008  Abs  $_NDEV
 0000:00FE  Abs  $_SCRN
 0000:AC5B       ABSFN
 0C5E:0717       ACTPAG
 0000:7712       ADRGET
 0000:244E       ALPTAB
 0000:2721       ALPTAX
 0C5E:05F9       ARG
 0C5E:05F2       ARGLO
 0000:34A1       ARYEXT
 0C5E:0581       ARYTA2
 0C5E:0490       ARYTAB
 0000:3B5A       ASC
 0000:3B5E       ASC2
 0C5E:0787       ASPECT
 0000:A7D7       ATN
 0000:008E  Abs  ATNTK
 0C5E:077A       ATRBYT
 0000:4412       ATRSCN
 0C5E:0474       AUTFLG
 0C5E:0477       AUTINC
 0C5E:0475       AUTLIN
 0000:11D3       AUTO
 0000:7892       BAKCHR
 0000:C213       BASVAR
 0000:789C       BCHRSI
 0C5E:0726       BEATS
 0000:6CA5       BEEP
 0000:6CA5       BEEPS
 0000:0000       BEGCSG
 0C5E:0000       BEGDSG
 0000:78AF       BINPSV
 0000:78A4       BINSAV
 0000:74A6       BLOAD
 0000:B170       BLTU
 0000:B173       BLTUC
 0000:000C  Abs  BOTCON
 0000:051B       BRKTXT
 0000:746F       BSAVE
 0000:34BD       BSERR
 0C5E:0329       BUF
 0000:2095       BUFLIN
 0C5E:0328       BUFMIN
 0000:9FF3       CALLS
 0000:9FF0       CALLSL
 0000:8953       CALTTY
 0000:3A9B       CAT
 0C5E:0789       CENCNT
 0000:C36A       CERMSG
 0000:3EC6       CHAIN
 0000:72D4       CHDIR
 0000:0839       CHEAD
 0000:85AD       CHGET
 0000:6D18       CHKINT
 0000:86C2       CHKKYB
 0000:B0E4       CHKSTR
 0000:2F5A       CHNENT
 0C5E:05A1       CHNFLG
 0C5E:05A2       CHNLIN
 0000:41EA       CHNRET
 0000:3B6E       CHR$
 0000:0D72       CHRCON
 0000:0D6B       CHRGT2
 0000:0D6A       CHRGTR
 0000:000A  Abs  CHRLNF
 0000:000D  Abs  CHRRET
 0000:8705       CHSNS
 0000:4842       CIRCLE
 0000:2D20       CLEAR
 0000:29E6       CLEARC
 0C5E:078B       CLINEF
 0000:00DB  Abs  CLINTK
 0000:73E2       CLOSE
 0000:5B4D       CLREOL
 0000:1812       CLROVC
 0000:5B20       CLRSCN
 0000:6884       CLS
 0000:777A       CLSALL
 0000:7795       CLSFIL
 0C5E:0845       CM1DCB
 0000:C5AC       CMDERR
 0C5E:0714       CMDOFF
 0C5E:059D       CMEPTR
 0000:82A9       CMPFBC
 0C5E:059F       CMSPTR
 0C5E:078C       CNPNTS
 0000:1B00       CNSGET
 0000:0068  Abs  CNSLEN
 0C5E:014F       CNTOFL
 0000:6953       COLOR
 0C5E:0833       COMDSC
 0000:8B60       COMDSP
 0000:8B7E       COMINI
 0000:426D       COMMON
 0000:6E6E       COMS
 0000:8B8C       COMTRM
 0000:6E74       COMTRP
 0000:0010  Abs  CONCN2
 0000:001E  Abs  CONCON
 0000:8F50       CONDSP
 0000:0DD0       CONFAC
 0000:0E0A       CONFC1
 0000:B1AC       CONIA
 0000:1FBE       CONINT
 0C5E:0435       CONLO
 0C5E:0433       CONSAV
 0000:AFCB       CONSIH
 0000:8F7C       CONSOT
 0000:04A8       CONSTR
 0000:2C43       CONT
 0C5E:0431       CONTXT
 0C5E:0434       CONTYP
 0000:A703       COS
 0C5E:078F       CPCNT
 0C5E:0791       CPCNT8
 0C5E:078E       CPLOTF
 0000:0005       CPMENT
 0C5E:0177       CPMEXT
 0C5E:0002       CPMMEM
 0C5E:01E7       CPMREA
 0C5E:01E6       CPMVRN
 0C5E:01E8       CPMWRI
 0000:0000       CPMWRM
 0C5E:0793       CRCSUM
 0000:7861       CRDO
 0000:7853       CRDONZ
 0000:7850       CRFIN
 0000:796B       CRIFEL
 0C5E:0734       CRTWID
 0000:08C4       CRUNCH
 0000:27E9       CRUNCX
 0C5E:0798       CSAVEA
 0C5E:079A       CSAVEM
 0C5E:0797       CSCLXY
 0000:5C2A       CSRATR
 0000:5B79       CSRDSP
 0C5E:015B       CSRFLG
 0C5E:015A       CSRTYP
 0C5E:0775       CSRX
 0C5E:0774       CSRY
 0C5E:0795       CSTCNT
 0C5E:0830       CSWFLG
 0C5E:082E       CSWSIZ
 0C5E:0132       CTLCAD
 0000:2C28       CTRLPT
 0000:2C26       CTROPT
 0C5E:0154       CURLIN
 0000:2E00       CVD
 0000:2DFA       CVI
 0000:2DFD       CVS
 0C5E:079B       CXOFF
 0C5E:079D       CYOFF
 0000:B434       DADD
 0000:0FFF       DATA
 0000:0FFF       DATAS
 0000:7142       DATEF
 0000:713C       DATES
 0C5E:0172       DATIME
 0C5E:046C       DATLIN
 0C5E:0494       DATPTR
 0C5E:0141       DAYSPM
 0000:0020  Abs  DBLCN1
 0000:001F  Abs  DBLCON
 0000:0119       DBLDSP
 0000:B20F       DCOMP
 0000:2AA3       DCOMPR
 0000:B184       DCXBRT
 0000:05CD       DDERR
 0000:B5C6       DDIV
 0000:4ED7       DECFET
 0000:1D19       DEF
 0000:0E52       DEFDBL
 0000:0E4C       DEFINT
 0000:0E4F       DEFREA
 0000:0E49       DEFSTR
 0C5E:0496       DEFTBL
 0000:234B       DEL
 0000:2316       DELETE
 0000:1684       DEPTR
 0000:059A       DERBFM
 0000:05A0       DERBFN
 0000:05AF       DERBRN
 0000:0594       DERDFL
 0000:058B       DERDNA
 0000:05B8       DERFAE
 0000:05A9       DERFAO
 0000:058E       DERFDR
 0000:059D       DERFNF
 0000:0588       DERFNO
 0000:05B2       DERFOV
 0000:05A3       DERIER
 0000:0585       DERIFN
 0000:0597       DERIOE
 0000:05AC       DERNMF
 0000:0591       DERRAD
 0000:05A6       DERRPE
 0000:05B5       DERTMF
 0000:78C6       DEVBIN
 0000:78DB       DEVBOT
 0C5E:0160       DEVINI
 0C5E:015E       DEVPTR
 0C5E:015C       DEVTBL
 0C5E:0162       DEVTRM
 0C5E:05E5       DFACLO
 0000:8257       DFSTLD
 0000:326B       DIM
 0C5E:042D       DIMFLG
 0C5E:0136       DINTAD
 0000:7705       DIRDO
 0000:0080       DIRTMP
 0000:01E6       DIVMSG
 0000:00EC  Abs  DIVTK
 0000:2E28       DLINE
 0000:B9C4       DMULT
 0000:143E       DOASIG
 0000:1F06       DOCNVF
 0000:4552       DOGRPH
 0000:6572       DONOTE
 0C5E:0430       DONUM
 0C5E:042F       DORES
 0C5E:047F       DOT
 0000:5F19       DOWNC
 0000:7679       DPUTG
 0000:4C75       DRAW
 0C5E:071F       DRWANG
 0C5E:071E       DRWFLG
 0C5E:071D       DRWSCL
 0C5E:0462       DSCPTR
 0C5E:0461       DSCTMP
 0C5E:010B       DSEGZ
 0000:7E20       DSKDSP
 0000:0013  Abs  DSKER1
 0000:0031  Abs  DSKERR
 0000:0397       DSKLOC
 0000:3913       DSOUT
 0000:AFAF       DSUB
 0000:05C7       DV0ERR
 0000:0758       EDENT
 0000:90F1       EDIT
 0000:90B9       EDTBRK
 0000:5906       EDTMAP
 0000:1003       ELSES
 0C5E:042B       ENDBUF
 0000:2BF5       ENDCON
 0C5E:046A       ENDFOR
 0C5E:0117       ENDPRG
 0000:2BD7       ENDST
 0C5E:0714       ENDTAB
 0000:72D4       ENVIRON
 0000:764E       EOF
 0000:6A6D       EOSCHK
 0000:00E7  Abs  EQULTK
 0000:2CBD       ERASE
 0000:00D5  Abs  ERCTK
 0000:72D4       ERDEV
 0000:060F       ERESET
 0000:00D4  Abs  ERLTK
 0000:0049  Abs  ERRADV
 0000:0036  Abs  ERRBFM
 0000:0034  Abs  ERRBFN
 0000:003F  Abs  ERRBRN
 0000:0009  Abs  ERRBS
 0000:0045  Abs  ERRCBO
 0000:0011  Abs  ERRCN
 0000:000A  Abs  ERRDD
 0000:003D  Abs  ERRDFL
 0000:0039  Abs  ERRDIO
 0000:0048  Abs  ERRDME
 0000:0044  Abs  ERRDNA
 0000:0047  Abs  ERRDNR
 0000:0039  Abs  ERRDPE
 0000:0018  Abs  ERRDTO
 0000:000B  Abs  ERRDV0
 0000:0019  Abs  ERRDVF
 0000:0046  Abs  ERRDWP
 0000:9164       ERREDT
 0000:003A  Abs  ERRFAE
 0000:0037  Abs  ERRFAO
 0000:0005  Abs  ERRFC
 0000:0042  Abs  ERRFDR
 0000:0692       ERRFIN
 0C5E:013B       ERRFLG
 0000:001A  Abs  ERRFN
 0000:0035  Abs  ERRFNF
 0000:0036  Abs  ERRFNO
 0000:0032  Abs  ERRFOV
 0000:000C  Abs  ERRID
 0000:0033  Abs  ERRIER
 0000:0040  Abs  ERRIFN
 0000:0039  Abs  ERRIOE
 0000:0017  Abs  ERRLBO
 0C5E:047D       ERRLIN
 0000:000F  Abs  ERRLS
 0000:0041  Abs  ERRMMM
 0000:0016  Abs  ERRMO
 0000:0001  Abs  ERRNF
 0000:0040  Abs  ERRNMF
 0000:0013  Abs  ERRNR
 0000:0004  Abs  ERROD
 0000:0007  Abs  ERROM
 0000:05DE       ERROR
 0000:11C3       ERRORS
 0000:001B  Abs  ERROTP
 0000:0006  Abs  ERROV
 0000:004A  Abs  ERRRAD
 0000:0014  Abs  ERRRE
 0000:0003  Abs  ERRRG
 0000:003E  Abs  ERRRPE
 0000:0002  Abs  ERRSN
 0000:000E  Abs  ERRSO
 0000:0010  Abs  ERRST
 0000:0137       ERRTAB
 0000:000D  Abs  ERRTM
 0000:0043  Abs  ERRTMF
 0C5E:0481       ERRTXT
 0000:0015  Abs  ERRUE
 0000:0028  Abs  ERRUE1
 0000:0012  Abs  ERRUF
 0000:0008  Abs  ERRUS
 0000:001E  Abs  ERRWE
 0000:001D  Abs  ERRWH
 0000:3493       ERSFIN
 0C5E:0672       ESCFLG
 0000:19E7       EVAL
 0000:291A       EVALX
 0000:B3B9       EXP
 0C5E:05AD       EXPAF
 0000:7954       EXPTAB
 0000:00ED  Abs  EXPTK
 0C5E:05AE       EXPTMP
 0C5E:05EC       FAC
 0C5E:05E9       FACLO
 0000:AFBC       FADD
 0000:B0C9       FADDS
 0C5E:05FA       FBUFFR
 0000:0EAC       FCERR
 0000:B0DC       FCOMP
 0000:AFC6       FDIV
 0000:B1C4       FDIVT
 0000:5ED9       FETCHC
 0000:4EB4       FETCHR
 0000:4EAE       FETCHZ
 0000:3077       FIELD
 0C5E:01C5       FILDEV
 0000:8357       FILES
 0C5E:01CE       FILEXT
 0000:76C4       FILGET
 0000:2E19       FILIND
 0000:76C2       FILINP
 0C5E:016E       FILMOD
 0C5E:01A4       FILNA2
 0C5E:01C5       FILNAM
 0C5E:01C6       FILNM
 0C5E:07B7       FILOPT
 0000:786E       FILOU3
 0000:76E8       FILSCN
 0000:76DB       FILSET
 0C5E:016A       FILTAB
 0000:AD4D       FIN
 0000:3B7A       FINBCK
 0000:AD51       FINDBL
 0000:0829       FINI
 0000:785B       FININL
 0000:7D2A       FINLPT
 0000:1808       FINOVC
 0000:7D54       FINPRT
 0000:B233       FIXER
 0000:31C5       FIXINP
 0C5E:0716       FKCNUM
 0000:5ECE       FKYADV
 0000:5EC0       FKYFMT
 0000:887D       FKYSNS
 0C5E:0470       FLGINP
 0C5E:05EE       FLGOVC
 0C5E:05F0       FLGSCN
 0C5E:0622       FMLTT1
 0C5E:0623       FMLTT2
 0000:AFDB       FMULT
 0000:0530       FNDFOR
 0000:089F       FNDLIN
 0000:1F5D       FNINP
 0000:1F73       FNOUT
 0000:00D1  Abs  FNTK
 0000:1F78       FNWAIT
 0000:0040  Abs  FOPTSZ
 0000:0BD6       FOR
 0000:0013  Abs  FORSZC
 0000:BC8F       FOUT
 0000:B0BF       FOUTH
 0000:B0B5       FOUTO
 0C5E:0730       FPDVAR
 0000:B1C9       FPWRQ
 0000:B919       FRCDBL
 0000:B942       FRCINT
 0000:B8EA       FRCSNG
 0000:B0E4       FRCSTR
 0000:010F       FRCTBL
 0000:3DF8       FRE
 0000:3B0B       FREFAC
 0C5E:0166       FREFDB
 0C5E:0670       FREFLG
 0000:3B08       FRESTR
 0000:3B0F       FRETM2
 0000:3B11       FRETMP
 0000:3B35       FRETMS
 0C5E:0464       FRETOP
 0000:2B1F       FRETRP
 0000:182C       FRMCHK
 0000:1820       FRMEQL
 0000:182B       FRMEVL
 0000:1827       FRMPRN
 0000:14FA       FRMQNT
 0000:1505       FRQINT
 0C5E:0771       FSTCOL
 0C5E:0770       FSTLIN
 0000:7901       FSTLOD
 0000:AFC1       FSUB
 0C5E:0586       FUNACT
 0000:2404       FUNDSP
 0C5E:058C       FVALSV
 0C5E:071A       F_CRET
 0C5E:071C       F_EDIT
 0C5E:0718       F_EDPG
 0C5E:071B       F_INST
 0C5E:08B7       F_SUPR
 0000:3974       GARBA2
 0000:6A28       GET
 0000:B1DB       GETBCD
 0000:1FBB       GETBYT
 0000:5050       GETFBC
 0000:500A       GETHED
 0000:1FA9       GETIN2
 0000:1FA6       GETINT
 0000:6960       GETLIN
 0000:76FA       GETPTR
 0000:7CBD       GETQ
 0000:3934       GETSPA
 0000:2970       GETSTK
 0000:1C55       GETYPR
 0000:7CEF       GIOINI
 0000:7D09       GIOTRM
 0000:1CA0       GIVDBL
 0000:1CA9       GIVINT
 0000:44A1       GLINE
 0000:0D4A       GONE
 0000:0F21       GOSUB
 0000:0F46       GOSUB2
 0000:0F65       GOTO
 0000:2B50       GOTRP
 0000:4B03       GPUTG
 0000:00E6  Abs  GREATK
 0C5E:0776       GRPACX
 0C5E:0778       GRPACY
 0000:45DF       GRPINI
 0000:45C6       GRPRST
 0000:50B4       GRPSIZ
 0000:603E       GTASPC
 0000:1FB8       GTBYTC
 0000:2A9E       GTMPRT
 0000:56EF       GWINI
 0000:5774       GWTERM
 0000:6908       GWWID
 0C5E:077B       GXPOS
 0C5E:077D       GYPOS
 0000:C340       HEDING
 0000:000C  Abs  HEXCON
 0000:45B7       HLFDE
 0000:1BA1       HOCFIN
 0000:35A5       IADAHL
 0000:AFFE       IADD
 0000:B24B       ICMPA
 0000:B249       ICOMP
 0000:B03D       IDIV
 0000:00F4  Abs  IDIVTK
 0000:1213       IFS
 0000:B25E       IMOD
 0000:B01B       IMULT
 0000:77C5       INCHR
 0000:8590       INCHRI
 0000:7818       INCHSI
 0000:0001  Abs  INCSTR
 0000:7814       INDSKC
 0000:AC7B       INEG
 0000:B0ED       INEG2
 0000:58FD       INFMAP
 0000:53A9       INICOM
 0000:7B2E       INIFDB
 0000:C390       INIT
 0C5E:0671       INITFG
 0000:7CA0       INITQ
 0000:2B38       INITRP
 0000:C1EC       INITSA
 0000:8894       INKEY
 0000:589B       INKMAP
 0000:9000       INLIN
 0C5E:0588       INPPAS
 0000:B1E7       INPRT
 0000:12DE       INPUT
 0000:B255       INRART
 0000:00D8  Abs  INSRTK
 0000:3C7F       INSTR
 0000:BD25       INT
 0000:19D7       INTDIV
 0000:012D       INTDSP
 0000:1FAC       INTFR2
 0000:0EA6       INTID2
 0000:0EA3       INTIDX
 0000:0510       INTXT
 0000:B1E3       INXHRT
 0000:72D4       IOCTL
 0C5E:0168       IOJUMP
 0000:2DD3       ISFLIO
 0000:B1A3       ISIGN
 0000:2D12       ISLET
 0000:2D14       ISLET2
 0000:1F48       ISMID$
 0000:AFE5       ISUB
 0000:1ADD       ISVAR
 0000:C1C0       JISFN
 0C5E:01EA       KBUF
 0000:6F62       KEYDSP
 0000:85E0       KEYIN
 0000:57D7       KEYINP
 0000:6E8A       KEYS
 0C5E:0731       KEYSW
 0000:6E82       KEYTRP
 0000:83E3       KILL
 0000:C1C0       KLENFN
 0000:C1C0       KPOSFN
 0000:C1C0       KTNFN
 0000:854D       KYBCLR
 0000:8510       KYBDSP
 0000:852E       KYBINI
 0C5E:0803       KYBQDS
 0000:0020  Abs  KYBQSZ
 0C5E:080B       KYBQUE
 0000:85AD       KYBSIN
 0000:8870       KYBSNS
 0000:8561       KYBTRM
 0000:1ADB       LABBCK
 0000:009B  Abs  LASNUM
 0000:C5BB       LASTWR
 0000:0B79       LBOERR
 0C5E:05B8       LBUFF
 0000:6941       LCOPYS
 0000:5C5E       LCPY
 0000:3BCB       LEFT$
 0000:5EF2       LEFTC
 0000:3BD7       LEFTUS
 0000:3B4A       LEN
 0000:00E8  Abs  LESSTK
 0000:1035       LET
 0000:105B       LETCN4
 0000:1030       LETCON
 0C5E:07A5       LFPROG
 0000:7CD9       LFTQ
 0000:3D39       LHSMID
 0C5E:0733       LINCNT
 0000:125F       LINE
 0000:0EBE       LINGET
 0000:0833       LINKER
 0C5E:0732       LINLEN
 0000:6A77       LINLP3
 0000:B1EF       LINPRT
 0000:0EB1       LINSPC
 0C5E:073A       LINTTB
 0000:2051       LISPRT
 0000:1FD9       LIST
 0000:2865       LISTX
 0000:1FD0       LLIST
 0000:2F38       LOAD
 0000:766C       LOC
 0000:6895       LOCATE
 0000:7674       LOF
 0000:BD91       LOG
 0C5E:07A1       LOHADR
 0C5E:07A3       LOHCNT
 0C5E:07A0       LOHDIR
 0C5E:079F       LOHMSK
 0000:B301       LOPFD1
 0000:B2F8       LOPFND
 0C5E:07F7       LP1DCB
 0C5E:0776       LPDVAR
 0000:8B18       LPOS
 0000:7536       LPRINT
 0000:8A20       LPTDSP
 0000:8A3F       LPTINI
 0C5E:013C       LPTLST
 0C5E:013D       LPTPOS
 0C5E:0140       LPTSIZ
 0000:8A3E       LPTTRM
 0000:2F33       LRUN
 0000:30F7       LSET
 0C5E:013A       LSTCHR
 0C5E:0773       LSTCOL
 0000:004B  Abs  LSTERR
 0C5E:0875       LSTIOB
 0C5E:0772       LSTLIN
 0000:000C  Abs  LSTOPK
 0C5E:08C0       LSTVAR
 0000:4E20       MACLNG
 0000:06E2       MAIN
 0000:B1AF       MAKINT
 0000:1AF1       MAKUPL
 0000:1AF3       MAKUPS
 0000:C2C3       MAPCLC
 0000:C223       MAPINI
 0000:595F       MAPSUP
 0000:5F58       MAPXYC
 0C5E:0783       MAXDEL
 0C5E:043D       MAXMEM
 0C5E:077E       MAXUPD
 0C5E:0722       MCLLEN
 0C5E:0720       MCLPTR
 0C5E:0723       MCLTAB
 0000:4F87       MCLXEQ
 0C5E:059C       MDLFLG
 0C5E:043F       MEMSIZ
 0000:2FE7       MERGE
 0000:3C15       MID$
 0000:0083  Abs  MIDTK
 0C5E:0785       MINDEL
 0000:1C17       MINPLS
 0C5E:0780       MINUPD
 0000:00EA  Abs  MINUTK
 0000:2DE6       MKD$
 0000:72D4       MKDIR
 0000:2DE0       MKI$
 0000:2DE3       MKS$
 0C5E:072A       MMODE
 0000:05D9       MOERR
 0000:C1D0       MOTOR
 0C5E:07A9       MOVCNT
 0C5E:0670       MOVDAT
 0000:B1D1       MOVE
 0000:B156       MOVE1
 0000:B098       MOVFM
 0000:B090       MOVFR
 0000:B0AA       MOVMF
 0000:B0A1       MOVRF
 0000:B1D6       MOVRM
 0C5E:059B       MRGFLG
 0C5E:0729       MSCALE
 0C5E:0131       MSDCCF
 0C5E:082D       MSWFLG
 0C5E:082B       MSWSIZ
 0000:00EB  Abs  MULTK
 0C5E:017C       NAMBUF
 0C5E:017B       NAMCNT
 0000:840C       NAME
 0000:7A36       NAMSCN
 0C5E:01A2       NAMTMP
 0000:AC75       NEG
 0000:4F9E       NEGD
 0000:4460       NEGHL
 0C5E:0831       NEWDS
 0000:0D2F       NEWSTT
 0000:28D9       NEWSTX
 0000:A073       NEXT
 0000:A07B       NEXTS
 0000:05CA       NFERR
 0C5E:016F       NLONLY
 0C5E:013F       NLPPOS
 0000:0003  Abs  NMREL
 0000:3330       NOARYS
 0000:29C2       NODSKS
 0C5E:0583       NOFUNS
 0000:001E  Abs  NONDSK
 0C5E:0728       NOTE1L
 0C5E:0727       NOTELN
 0000:34C3       NOTFDD
 0000:3352       NOTFNS
 0000:0B81       NOTRFN
 0000:00D3  Abs  NOTTK
 0000:60AD       NREAD
 0000:5FEF       NSETCX
 0000:1144       NTONG1
 0C5E:0130       NULCNT
 0000:2C5A       NULL
 0000:774A       NULOPM
 0000:004A  Abs  NUMCMD
 0C5E:0109       NUMCON
 0000:0005  Abs  NUMGFN
 0000:7CE1       NUMQ
 0000:60F8       NWRITE
 0000:0CE7       NXTCON
 0C5E:058B       NXTFLG
 0C5E:0590       NXTLIN
 0C5E:0589       NXTTXT
 0C5E:0725       OCTAVE
 0000:1B07       OCTCNS
 0000:000B  Abs  OCTCON
 0000:2AD1       OFFTRP
 0000:3001       OKGET2
 0000:2FF7       OKGETM
 0C5E:048A       OLDLIN
 0C5E:048C       OLDTXT
 0000:298F       OMERR
 0000:299C       OMERRR
 0000:0011  Abs  ONECON
 0C5E:0485       ONEFLG
 0000:0081  Abs  ONEFUN
 0C5E:0483       ONELIN
 0000:10AB       ONGOTO
 0000:6DB3       ONGOTP
 0C5E:08B5       ONGSBF
 0000:2ABE       ONTRP
 0000:0004  Abs  OPCNT
 0000:72E0       OPEN
 0C5E:042F       OPRTYP
 0000:0103       OPTAB
 0C5E:0593       OPTFLG
 0000:168F       OPTION
 0C5E:0592       OPTVAL
 0000:91B2       OUTCH1
 0000:786E       OUTDO
 0000:2FE1       OUTLOD
 0C5E:05EF       OVCSTR
 0000:05D6       OVERR
 0C5E:0158       OVERRI
 0000:018D       OVRMSG
 0000:4600       PAINT
 0000:72D1       PALETE
 0000:1AC6       PARCHK
 0C5E:04B4       PARM1
 0C5E:051C       PARM2
 0000:6690       PATCHG
 0000:7BD1       PBAX
 0C5E:05BA       PBUFF
 0000:7BD0       PCBAX
 0000:7BCF       PDCBAX
 0C5E:0730       PDIDS1
 0C5E:07AB       PDIREC
 0000:14BF       PEEK
 0000:50F2       PEKFLT
 0000:82B8       PENCOD
 0000:707A       PENF
 0000:7054       PENS
 0000:6077       PGINIT
 0C5E:05BC       PGTFLG
 0000:8FF0       PINLIN
 0000:6052       PIXSIZ
 0000:6ABF       PLAYS
 0000:20B0       PLOOP2
 0000:00E9  Abs  PLUSTK
 0000:72D4       PMAP
 0000:617E       PNTINI
 0000:43BC       POINT
 0000:14D9       POKE
 0000:5100       POKFLT
 0000:8B8D       POLCOM
 0000:8617       POLKEY
 0000:63BF       POLLEV
 0000:2D0C       POPAHT
 0000:B1AA       POPHRT
 0000:89E8       POS
 0000:395D       PPSWRT
 0000:4396       PRESET
 0000:771F       PRGFIL
 0000:2FD8       PRGFIN
 0000:2F2E       PRGFL2
 0000:2F2C       PRGFLI
 0000:753E       PRINT
 0000:35E0       PRINUS
 0C5E:0580       PRMFLG
 0C5E:04B2       PRMLEN
 0C5E:051A       PRMLN2
 0C5E:0518       PRMPRV
 0000:0064  Abs  PRMSIZ
 0C5E:04B0       PRMSTK
 0000:834A       PROCHK
 0000:8340       PRODIR
 0C5E:059A       PROFLG
 0000:82FC       PROLOD
 0000:8284       PROSAV
 0C5E:013E       PRTFLG
 0000:5010       PRTMAP
 0000:43A0       PSET
 0C5E:07B1       PSNLEN
 0000:79BD       PTRDSP
 0C5E:0150       PTRFIL
 0C5E:0473       PTRFLG
 0000:3273       PTRGET
 0000:7917       PTRGPS
 0000:327A       PTRGT2
 0000:336D       PTRGTN
 0000:3370       PTRGTR
 0000:7935       PTRWID
 0000:BFCE       PUFOUT
 0000:B0D1       PUSHF
 0000:6A22       PUT
 0000:38A2       PUTDEI
 0C5E:07AC       PUTFLG
 0000:38E8       PUTNEW
 0000:7CAE       PUTQ
 0000:38EC       PUTTMP
 0000:8FF6       QINLIN
 0C5E:07AD       QUEINP
 0C5E:07B3       QUELEN
 0C5E:07AF       QUEOUT
 0C5E:0100       RAMLOW
 0000:16F1       RANDOM
 0000:6322       RDPEN
 0000:6396       RDSTIK
 0000:635A       RDTRIG
 0000:13E1       READ
 0000:5F9D       READC
 0000:06C4       READY
 0000:0567       READYR
 0000:29A2       REASON
 0000:54C9       RECCOM
 0C5E:05B6       RECRD
 0000:0515       REDDY
 0000:1003       REM
 0000:0A12       RENCRN
 0000:2AFD       REQTRP
 0000:1529       RESEQ
 0000:84D7       RESET
 0000:2BC9       RESFIN
 0000:2482       RESLST
 0000:2BAF       RESTORE
 0000:1166       RESUME
 0000:0FAE       RETURN
 0000:1AE0       RETVAR
 0000:3C08       RIGHT$
 0000:5EE1       RIGHTC
 0000:72D4       RMDIR
 0000:C054       RND
 0C5E:010C       RNDCOP
 0000:B113       RNDMN2
 0000:B110       RNDMON
 0C5E:0110       RNDX
 0000:30F3       RSET
 0000:2AF0       RSTTRP
 0C5E:07A6       RTPROG
 0C5E:014E       RUBSW
 0000:0F09       RUN
 0000:29E1       RUNC
 0C5E:0170       RUNFLG
 0C5E:046F       SARYFL
 0000:3024       SAVE
 0C5E:0598       SAVFRE
 0C5E:0164       SAVKEY
 0C5E:0165       SAVKYF
 0C5E:07B5       SAVLEN
 0C5E:0486       SAVSEG
 0C5E:047B       SAVSTK
 0C5E:0479       SAVTXT
 0000:7DE2       SAVVEC
 0000:5F2F       SCALXY
 0000:4330       SCAN1
 0000:4344       SCAND
 0000:6243       SCANL
 0000:6189       SCANR
 0000:15D9       SCCPTR
 0000:7B65       SCDASC
 0000:7B70       SCDBIN
 0000:91D6       SCNBRK
 0000:920E       SCNCLR
 0000:8900       SCNDSP
 0000:15F0       SCNEXT
 0000:8A16       SCNGCW
 0000:89F6       SCNGPS
 0000:8A09       SCNGWD
 0000:9234       SCNGWI
 0000:891E       SCNINI
 0000:6A3E       SCNINT
 0000:91D0       SCNIPL
 0000:0865       SCNLIN
 0000:9206       SCNLOC
 0000:95D2       SCNMRK
 0000:9280       SCNOUT
 0000:921F       SCNPOS
 0000:9651       SCNRDL
 0000:9239       SCNRDT
 0000:56DD       SCNRST
 0000:8A15       SCNSCW
 0000:904D       SCNSEM
 0000:2814  Abs  SCNSIZ
 0000:8965       SCNSOT
 0000:892D       SCNSWD
 0000:91E6       SCNSWI
 0000:8925       SCNTRM
 0000:29C4       SCRATH
 0000:5C66       SCRATR
 0000:69E9       SCREEN
 0000:698A       SCRENF
 0000:59C6       SCRINP
 0000:59DE       SCROLL
 0000:5962       SCROUT
 0000:5C89       SCRSTT
 0000:29C7       SCRTCH
 0000:4FB0       SEGINI
 0000:C324       SEGOFF
 0C5E:0719       SEMFLG
 0000:5F94       SETATR
 0000:5FBD       SETC
 0000:5313       SETCBF
 0000:5D7A       SETCLR
 0000:88E5       SETCSR
 0000:506F       SETFBC
 0000:6E22       SETGSB
 0000:3B74       SETSTR
 0000:2B14       SETTRP
 0000:7DF1       SETVEC
 0000:8864       SFTOFF
 0000:B1BF       SGN
 0000:72D4       SHELL
 0000:AA0F       SIGN
 0000:B20A       SIGNC
 0000:B218       SIGNS
 0000:A71B       SIN
 0000:9000       SINLIN
 0000:6EF5       SKEYON
 0C5E:07A7       SKPCNT
 0000:4260       SKPNAM
 0C5E:072C       SNDBAS
 0000:5509       SNDCOM
 0000:6C73       SNDINI
 0000:5590       SNDLPT
 0C5E:072E       SNDOUT
 0000:6C95       SNDRST
 0C5E:072B       SNDTIC
 0000:05C4       SNERR
 0000:0123       SNGDSP
 0000:1CA5       SNGFLT
 0000:00D9  Abs  SNGQTK
 0C5E:08B6       SOFTKY
 0000:6CBD       SOUNDS
 0000:3BAA       SPACE$
 0000:26B6       SPCTAB
 0000:00D2  Abs  SPCTK
 0000:AE07       SQR
 0000:0087  Abs  SQRTK
 0000:5561       STACOM
 0000:0100       START
 0000:88D0       STCTYP
 0000:00CF  Abs  STEPTK
 0000:7102       STICKF
 0000:2A71       STKERR
 0000:2A64       STKINI
 0C5E:016C       STKLOW
 0000:2370       STMDSP
 0000:2BD0       STOP
 0000:2BD3       STOPRG
 0000:5ED1       STOREC
 0000:2BF2       STPEND
 0000:06C3       STPRDY
 0000:2AD9       STPTRP
 0000:3872       STR$
 0000:389F       STRAD1
 0000:3820       STRCMP
 0000:387F       STRCPY
 0C5E:0492       STREND
 0000:386D       STRH$
 0000:70C8       STRIGF
 0000:70B0       STRIGS
 0000:3897       STRIN1
 0000:3899       STRINI
 0000:38A7       STRLIT
 0000:38AC       STRLT2
 0000:38AA       STRLT3
 0000:38A8       STRLTI
 0000:3B7E       STRNG$
 0000:3868       STRO$
 0000:3912       STROUI
 0000:A9EF       STROUT
 0000:3916       STRPRT
 0C5E:0674       STRTAB
 0000:2DCC       SUBDE
 0C5E:046E       SUBFLG
 0000:2C6D       SWAP
 0000:5E3C       SWIDTH
 0C5E:05A4       SWPTMP
 0000:2AA6       SYNCHR
 0000:84EF       SYSTEM
 0000:84F4       SYSTME
 0000:00CE  Abs  TABTK
 0000:A7B7       TAN
 0000:6062       TDOWNC
 0C5E:0471       TEMP
 0C5E:0488       TEMP2
 0C5E:0466       TEMP3
 0C5E:0468       TEMP8
 0C5E:0584       TEMP9
 0C5E:0596       TEMPA
 0C5E:05B6       TEMPB
 0C5E:0441       TEMPPT
 0C5E:0443       TEMPST
 0000:00CD  Abs  THENTK
 0000:723A       TIMEF
 0000:72D4       TIMER
 0000:7234       TIMES
 0000:6F5D       TKEYOF
 0000:05DC       TMERR
 0000:2C67       TOFF
 0000:2C66       TON
 0000:001B  Abs  TOPCON
 0C5E:0152       TOPMEM
 0C5E:0595       TOPTFG
 0C5E:0594       TOPTVL
 0C5E:05AC       TRCFLG
 0000:55B8       TRMCOM
 0C5E:076E       TRMCUR
 0000:007F  Abs  TRMEOL
 0000:000A  Abs  TRMLNF
 0000:0080  Abs  TRMNUL
 0000:0001  Abs  TRMNWP
 0000:0000  Abs  TRMWRP
 0C5E:0876       TRPTBL
 0C5E:0625       TSTACK
 0000:225B       TSTANM
 0000:183C       TSTOP
 0C5E:042C       TTYPOS
 0000:6056       TUPC
 0C5E:0673       TWOBYT
 0C5E:0156       TXTTAB
 0000:0001  Abs  T_ON
 0000:0004  Abs  T_REQ
 0000:0002  Abs  T_STOP
 0000:05D0       UFERR
 0000:B12F       UMULT
 0000:5F03       UPC
 0000:7984       UPDPOS
 0000:0FA9       USERR
 0C5E:0470       USFLG
 0000:00D7  Abs  USINTK
 0C5E:011C       USRTAB
 0000:00D0  Abs  USRTK
 0000:3C4E       VAL
 0000:B986       VALINT
 0000:4F00       VALSC2
 0000:4EE8       VALSCN
 0000:B1B9       VALSNG
 0C5E:042E       VALTYP
 0000:4F7E       VARGET
 0000:6A93       VARPT2
 0C5E:048E       VARTAB
 0000:B14A       VDFACS
 0000:72D4       VIEW
 0000:AD3F       VINT
 0000:B143       VMOVAF
 0000:B15E       VMOVE
 0000:B13A       VMOVFA
 0000:B13D       VMOVFM
 0000:B146       VMOVMF
 0000:AC70       VNEG
 0000:B188       VSIGN
 0C5E:0736       WDOBOT
 0C5E:0737       WDOLFT
 0C5E:0738       WDORGT
 0C5E:0735       WDOTOP
 0C5E:0739       WDTFLG
 0000:3E4C       WEND
 0000:3E20       WHILE
 0000:7401       WIDTHS
 0000:72D4       WINDOW
 0000:174A       WNDSCN
 0000:C1E0       WORDS
 0000:4270       WRITE
 0000:4490       XCHGX
 0000:4480       XCHGY
 0000:444D       XDELT
 0000:794B       XTABCR
 0000:446E       YDELT
 0000:AA05       ZERO
 0000:8FCB       _DVINI
 0000:8FB9       _DVPTR
 0000:8F90       _DVTBL
 0000:8FDB       _DVTRM
 0000:8F78       _RET

  Address         Publics by Value

 0000:0000       CPMWRM
 0000:0000  Abs  TRMWRP
 0000:0000       BEGCSG
 0000:0001  Abs  INCSTR
 0000:0001  Abs  T_ON
 0000:0001  Abs  TRMNWP
 0000:0001  Abs  ERRNF
 0000:0002  Abs  ERRSN
 0000:0002  Abs  T_STOP
 0000:0003  Abs  NMREL
 0000:0003  Abs  ERRRG
 0000:0004  Abs  OPCNT
 0000:0004  Abs  T_REQ
 0000:0004  Abs  ERROD
 0000:0005  Abs  ERRFC
 0000:0005  Abs  NUMGFN
 0000:0005       CPMENT
 0000:0006  Abs  ERROV
 0000:0007  Abs  ERROM
 0000:0007  Abs  $RNDFN
 0000:0008  Abs  ERRUS
 0000:0008  Abs  $_NDEV
 0000:0009  Abs  ERRBS
 0000:000A  Abs  CHRLNF
 0000:000A  Abs  ERRDD
 0000:000A  Abs  TRMLNF
 0000:000B  Abs  ERRDV0
 0000:000B  Abs  OCTCON
 0000:000C  Abs  HEXCON
 0000:000C  Abs  ERRID
 0000:000C  Abs  LSTOPK
 0000:000C  Abs  BOTCON
 0000:000D  Abs  ERRTM
 0000:000D  Abs  CHRRET
 0000:000E  Abs  ERRSO
 0000:000F  Abs  ERRLS
 0000:0010  Abs  CONCN2
 0000:0010  Abs  ERRST
 0000:0011  Abs  ERRCN
 0000:0011  Abs  ONECON
 0000:0012  Abs  ERRUF
 0000:0013  Abs  DSKER1
 0000:0013  Abs  ERRNR
 0000:0013  Abs  FORSZC
 0000:0014  Abs  ERRRE
 0000:0015  Abs  $CHRFN
 0000:0015  Abs  ERRUE
 0000:0016  Abs  ERRMO
 0000:0017  Abs  ERRLBO
 0000:0018  Abs  ERRDTO
 0000:0019  Abs  ERRDVF
 0000:001A  Abs  ERRFN
 0000:001B  Abs  ERROTP
 0000:001B  Abs  TOPCON
 0000:001C  Abs  $CSNGF
 0000:001D  Abs  $CDBLF
 0000:001D  Abs  ERRWH
 0000:001E  Abs  CONCON
 0000:001E  Abs  ERRWE
 0000:001E  Abs  NONDSK
 0000:001F  Abs  DBLCON
 0000:0020  Abs  DBLCN1
 0000:0020  Abs  KYBQSZ
 0000:0028  Abs  ERRUE1
 0000:0031  Abs  DSKERR
 0000:0032  Abs  ERRFOV
 0000:0033  Abs  ERRIER
 0000:0034  Abs  ERRBFN
 0000:0035  Abs  ERRFNF
 0000:0036  Abs  ERRFNO
 0000:0036  Abs  ERRBFM
 0000:0037  Abs  ERRFAO
 0000:0039  Abs  ERRDIO
 0000:0039  Abs  ERRIOE
 0000:0039  Abs  ERRDPE
 0000:003A  Abs  ERRFAE
 0000:003D  Abs  ERRDFL
 0000:003E  Abs  ERRRPE
 0000:003F  Abs  ERRBRN
 0000:0040  Abs  ERRNMF
 0000:0040  Abs  FOPTSZ
 0000:0040  Abs  ERRIFN
 0000:0041  Abs  ERRMMM
 0000:0042  Abs  ERRFDR
 0000:0043  Abs  ERRTMF
 0000:0044  Abs  ERRDNA
 0000:0045  Abs  ERRCBO
 0000:0046  Abs  ERRDWP
 0000:0047  Abs  ERRDNR
 0000:0048  Abs  ERRDME
 0000:0049  Abs  ERRADV
 0000:004A  Abs  ERRRAD
 0000:004A  Abs  NUMCMD
 0000:004A  Abs  $DATCO
 0000:004B  Abs  LSTERR
 0000:0055  Abs  $REMCO
 0000:0064  Abs  PRMSIZ
 0000:0068  Abs  CNSLEN
 0000:007F  Abs  TRMEOL
 0000:0080  Abs  TRMNUL
 0000:0080       DIRTMP
 0000:0081  Abs  $CVI
 0000:0081  Abs  ONEFUN
 0000:0081  Abs  $FILES
 0000:0081  Abs  $LEFT$
 0000:0081  Abs  $END
 0000:0082  Abs  $FOR
 0000:0082  Abs  $RIGHT$
 0000:0082  Abs  $FIELD
 0000:0082  Abs  $CVS
 0000:0083  Abs  $MID$
 0000:0083  Abs  $SYSTEM
 0000:0083  Abs  MIDTK
 0000:0083  Abs  $NEXT
 0000:0083  Abs  $CVD
 0000:0084  Abs  $DATA
 0000:0084  Abs  $SGN
 0000:0084  Abs  $MKI$
 0000:0084  Abs  $NAME
 0000:0085  Abs  $LSET
 0000:0085  Abs  $INPUT
 0000:0085  Abs  $INT
 0000:0085  Abs  $MKS$
 0000:0086  Abs  $DIM
 0000:0086  Abs  $RSET
 0000:0086  Abs  $ABS
 0000:0086  Abs  $MKD$
 0000:0087  Abs  $SQR
 0000:0087  Abs  $READ
 0000:0087  Abs  SQRTK
 0000:0087  Abs  $KTN
 0000:0087  Abs  $KILL
 0000:0088  Abs  $LET
 0000:0088  Abs  $RND
 0000:0088  Abs  $JIS
 0000:0088  Abs  $PUT
 0000:0089  Abs  $GOTO
 0000:0089  Abs  $SIN
 0000:0089  Abs  $KPOS
 0000:0089  Abs  $GET
 0000:008A  Abs  $KLEN
 0000:008A  Abs  $LOG
 0000:008A  Abs  $RESET
 0000:008A  Abs  $RUN
 0000:008B  Abs  $EXP
 0000:008B  Abs  $IF
 0000:008B  Abs  $COMMON
 0000:008C  Abs  $RESTORE
 0000:008C  Abs  $CHAIN
 0000:008C  Abs  $COS
 0000:008D  Abs  $TAN
 0000:008D  Abs  $GOSUB
 0000:008D  Abs  $DATE$
 0000:008E  Abs  $ATN
 0000:008E  Abs  $RETURN
 0000:008E  Abs  ATNTK
 0000:008E  Abs  $TIME$
 0000:008F  Abs  $FRE
 0000:008F  Abs  $REM
 0000:008F  Abs  $PAINT
 0000:0090  Abs  $INP
 0000:0090  Abs  $COM
 0000:0090  Abs  $STOP
 0000:0091  Abs  $CIRCLE
 0000:0091  Abs  $PRINT
 0000:0091  Abs  $POS
 0000:0092  Abs  $CLEAR
 0000:0092  Abs  $LEN
 0000:0092  Abs  $DRAW
 0000:0093  Abs  $PLAY
 0000:0093  Abs  $LIST
 0000:0093  Abs  $STR$
 0000:0094  Abs  $VAL
 0000:0094  Abs  $NEW
 0000:0094  Abs  $TIMER
 0000:0095  Abs  $ON
 0000:0095  Abs  $ERDEV
 0000:0095  Abs  $ASC
 0000:0096  Abs  $WAIT
 0000:0096  Abs  $IOCTL
 0000:0096  Abs  $CHR$
 0000:0097  Abs  $DEF
 0000:0097  Abs  $PEEK
 0000:0097  Abs  $CHDIR
 0000:0098  Abs  $MKDIR
 0000:0098  Abs  $SPACE$
 0000:0098  Abs  $POKE
 0000:0099  Abs  $RMDIR
 0000:0099  Abs  $OCT$
 0000:0099  Abs  $CONT
 0000:009A  Abs  $SHELL
 0000:009A  Abs  $HEX$
 0000:009B  Abs  $LPOS
 0000:009B  Abs  $ENVIRON
 0000:009B  Abs  LASNUM
 0000:009C  Abs  $OUT
 0000:009C  Abs  $CINT
 0000:009C  Abs  $VIEW
 0000:009D  Abs  $LPRINT
 0000:009D  Abs  $CSNG
 0000:009D  Abs  $WINDOW
 0000:009E  Abs  $LLIST
 0000:009E  Abs  $CDBL
 0000:009E  Abs  $PMAP
 0000:009F  Abs  $PALETTE
 0000:009F  Abs  $FIX
 0000:009F  Abs  $DUMMY
 0000:00A0  Abs  $WIDTH
 0000:00A0  Abs  $LCOPY
 0000:00A0  Abs  $PEN
 0000:00A1  Abs  $CALLS
 0000:00A1  Abs  $STICK
 0000:00A1  Abs  $ELSE
 0000:00A2  Abs  $TRON
 0000:00A2  Abs  $STRIG
 0000:00A3  Abs  $EOF
 0000:00A3  Abs  $TROFF
 0000:00A4  Abs  $SWAP
 0000:00A4  Abs  $LOC
 0000:00A5  Abs  $ERASE
 0000:00A5  Abs  $LOF
 0000:00A6  Abs  $EDIT
 0000:00A7  Abs  $ERROR
 0000:00A8  Abs  $RESUME
 0000:00A9  Abs  $DELETE
 0000:00AA  Abs  $AUTO
 0000:00AB  Abs  $RENUM
 0000:00AC  Abs  $DEFSTR
 0000:00AD  Abs  $DEFINT
 0000:00AE  Abs  $DEFSNG
 0000:00AF  Abs  $DEFDBL
 0000:00B0  Abs  $LINE
 0000:00B1  Abs  $WHILE
 0000:00B2  Abs  $WEND
 0000:00B3  Abs  $CALL
 0000:00B7  Abs  $WRITE
 0000:00B8  Abs  $OPTION
 0000:00B9  Abs  $RANDOMIZE
 0000:00BA  Abs  $OPEN
 0000:00BB  Abs  $CLOSE
 0000:00BC  Abs  $LOAD
 0000:00BD  Abs  $MERGE
 0000:00BE  Abs  $SAVE
 0000:00BF  Abs  $COLOR
 0000:00C0  Abs  $CLS
 0000:00C1  Abs  $MOTOR
 0000:00C2  Abs  $BSAVE
 0000:00C3  Abs  $BLOAD
 0000:00C4  Abs  $SOUND
 0000:00C5  Abs  $BEEP
 0000:00C6  Abs  $PSET
 0000:00C7  Abs  $PRESET
 0000:00C8  Abs  $SCREEN
 0000:00C9  Abs  $KEY
 0000:00C9  Abs  $KEY2B
 0000:00CA  Abs  $LOCATE
 0000:00CC  Abs  $TO
 0000:00CD  Abs  THENTK
 0000:00CD  Abs  $THEN
 0000:00CE  Abs  TABTK
 0000:00CE  Abs  $TAB
 0000:00CF  Abs  STEPTK
 0000:00CF  Abs  $STEP
 0000:00D0  Abs  $USR
 0000:00D0  Abs  USRTK
 0000:00D1  Abs  $FN
 0000:00D1  Abs  FNTK
 0000:00D2  Abs  SPCTK
 0000:00D2  Abs  $SPC
 0000:00D3  Abs  NOTTK
 0000:00D3  Abs  $NOT
 0000:00D4  Abs  $ERL
 0000:00D4  Abs  ERLTK
 0000:00D5  Abs  $ERR
 0000:00D5  Abs  ERCTK
 0000:00D6  Abs  $STRING$
 0000:00D7  Abs  USINTK
 0000:00D7  Abs  $USING
 0000:00D8  Abs  INSRTK
 0000:00D8  Abs  $INSTR
 0000:00D9  Abs  SNGQTK
 0000:00DA  Abs  $VARPTR
 0000:00DB  Abs  $CSRLIN
 0000:00DB  Abs  CLINTK
 0000:00DC  Abs  $POINT
 0000:00DD  Abs  $OFF
 0000:00DE  Abs  $INKEY$
 0000:00E6  Abs  GREATK
 0000:00E7  Abs  EQULTK
 0000:00E8  Abs  LESSTK
 0000:00E9  Abs  PLUSTK
 0000:00EA  Abs  MINUTK
 0000:00EB  Abs  MULTK
 0000:00EC  Abs  DIVTK
 0000:00ED  Abs  EXPTK
 0000:00EE  Abs  $AND
 0000:00EF  Abs  $OR
 0000:00F0  Abs  $XOR
 0000:00F1  Abs  $EQV
 0000:00F2  Abs  $IMP
 0000:00F3  Abs  $MOD
 0000:00F4  Abs  IDIVTK
 0000:00F8  Abs  $_COM2
 0000:00F9  Abs  $_COM1
 0000:00FA  Abs  $_LPT3
 0000:00FB  Abs  $_LPT2
 0000:00FC  Abs  $_LPT1
 0000:00FD  Abs  $_CONS
 0000:00FE  Abs  $_SCRN
 0000:00FF  Abs  $_KYBD
 0000:0100       $START
 0000:0100       START
 0000:0103       OPTAB
 0000:010F       FRCTBL
 0000:0119       DBLDSP
 0000:0123       SNGDSP
 0000:012D       INTDSP
 0000:0137       ERRTAB
 0000:018D       OVRMSG
 0000:018D       $OVMSG
 0000:01E6       DIVMSG
 0000:01E6       $DIV0M
 0000:0397       DSKLOC
 0000:04A8       CONSTR
 0000:0510       INTXT
 0000:0515       REDDY
 0000:051B       BRKTXT
 0000:0530       FNDFOR
 0000:0567       READYR
 0000:0585       DERIFN
 0000:0588       DERFNO
 0000:058B       DERDNA
 0000:058E       DERFDR
 0000:0591       DERRAD
 0000:0594       DERDFL
 0000:0597       DERIOE
 0000:059A       DERBFM
 0000:059D       DERFNF
 0000:05A0       DERBFN
 0000:05A3       DERIER
 0000:05A6       DERRPE
 0000:05A9       DERFAO
 0000:05AC       DERNMF
 0000:05AF       DERBRN
 0000:05B2       DERFOV
 0000:05B5       DERTMF
 0000:05B8       DERFAE
 0000:05C4       SNERR
 0000:05C4       $SNERR
 0000:05C7       DV0ERR
 0000:05CA       NFERR
 0000:05CD       DDERR
 0000:05D0       UFERR
 0000:05D6       OVERR
 0000:05D6       $OVERR
 0000:05D9       MOERR
 0000:05DC       $TMERR
 0000:05DC       TMERR
 0000:05DE       ERROR
 0000:060F       ERESET
 0000:0692       ERRFIN
 0000:06C3       STPRDY
 0000:06C4       READY
 0000:06E2       MAIN
 0000:0758       EDENT
 0000:0829       FINI
 0000:0833       LINKER
 0000:0839       CHEAD
 0000:0865       SCNLIN
 0000:089F       FNDLIN
 0000:08C4       CRUNCH
 0000:0A12       RENCRN
 0000:0B79       LBOERR
 0000:0B81       NOTRFN
 0000:0BD6       FOR
 0000:0CE7       NXTCON
 0000:0D2F       NEWSTT
 0000:0D4A       GONE
 0000:0D6A       CHRGTR
 0000:0D6B       CHRGT2
 0000:0D72       CHRCON
 0000:0DD0       CONFAC
 0000:0E0A       CONFC1
 0000:0E49       DEFSTR
 0000:0E4C       DEFINT
 0000:0E4F       DEFREA
 0000:0E52       DEFDBL
 0000:0EA3       INTIDX
 0000:0EA6       INTID2
 0000:0EAC       FCERR
 0000:0EAC       $FCERR
 0000:0EB1       LINSPC
 0000:0EBE       LINGET
 0000:0F09       RUN
 0000:0F21       GOSUB
 0000:0F46       GOSUB2
 0000:0F65       GOTO
 0000:0FA9       USERR
 0000:0FAE       RETURN
 0000:0FFF       DATAS
 0000:0FFF       DATA
 0000:1003       ELSES
 0000:1003       REM
 0000:1030       LETCON
 0000:1035       LET
 0000:105B       LETCN4
 0000:10AB       ONGOTO
 0000:1144       NTONG1
 0000:1166       RESUME
 0000:11C3       ERRORS
 0000:11D3       AUTO
 0000:1213       IFS
 0000:125F       LINE
 0000:12DE       INPUT
 0000:13E1       READ
 0000:143E       DOASIG
 0000:14BF       PEEK
 0000:14D9       POKE
 0000:14FA       FRMQNT
 0000:1505       FRQINT
 0000:1529       RESEQ
 0000:15D9       SCCPTR
 0000:15F0       SCNEXT
 0000:1684       DEPTR
 0000:168F       OPTION
 0000:16E3       $STPRN
 0000:16F1       RANDOM
 0000:174A       WNDSCN
 0000:1808       $FLGOC
 0000:1808       FINOVC
 0000:1812       CLROVC
 0000:1812       $CLROV
 0000:1820       FRMEQL
 0000:1827       FRMPRN
 0000:182B       FRMEVL
 0000:182C       FRMCHK
 0000:183C       TSTOP
 0000:19D7       INTDIV
 0000:19E7       EVAL
 0000:1AC6       PARCHK
 0000:1ADB       LABBCK
 0000:1ADD       ISVAR
 0000:1AE0       RETVAR
 0000:1AF1       MAKUPL
 0000:1AF3       MAKUPS
 0000:1B00       CNSGET
 0000:1B07       OCTCNS
 0000:1B07       $OHCNS
 0000:1BA1       HOCFIN
 0000:1C17       MINPLS
 0000:1C55       GETYPR
 0000:1CA0       GIVDBL
 0000:1CA5       SNGFLT
 0000:1CA9       GIVINT
 0000:1D19       DEF
 0000:1F06       DOCNVF
 0000:1F48       ISMID$
 0000:1F5D       FNINP
 0000:1F73       FNOUT
 0000:1F78       FNWAIT
 0000:1FA6       GETINT
 0000:1FA9       GETIN2
 0000:1FAC       INTFR2
 0000:1FB8       GTBYTC
 0000:1FBB       GETBYT
 0000:1FBE       CONINT
 0000:1FD0       LLIST
 0000:1FD9       LIST
 0000:2051       LISPRT
 0000:2095       BUFLIN
 0000:20B0       PLOOP2
 0000:225B       TSTANM
 0000:2316       DELETE
 0000:234B       DEL
 0000:2370       STMDSP
 0000:2404       FUNDSP
 0000:244E       ALPTAB
 0000:2482       RESLST
 0000:26B6       SPCTAB
 0000:2721       ALPTAX
 0000:27E9       CRUNCX
 0000:2814  Abs  SCNSIZ
 0000:2865       LISTX
 0000:28D9       NEWSTX
 0000:291A       EVALX
 0000:2970       GETSTK
 0000:298F       OMERR
 0000:299C       OMERRR
 0000:29A2       REASON
 0000:29C2       NODSKS
 0000:29C4       SCRATH
 0000:29C7       SCRTCH
 0000:29E1       RUNC
 0000:29E6       CLEARC
 0000:2A64       STKINI
 0000:2A71       STKERR
 0000:2A9E       GTMPRT
 0000:2AA3       DCOMPR
 0000:2AA6       SYNCHR
 0000:2ABE       ONTRP
 0000:2AD1       OFFTRP
 0000:2AD9       STPTRP
 0000:2AF0       RSTTRP
 0000:2AFD       REQTRP
 0000:2B14       SETTRP
 0000:2B1F       FRETRP
 0000:2B38       INITRP
 0000:2B50       GOTRP
 0000:2BAF       RESTORE
 0000:2BC9       RESFIN
 0000:2BD0       STOP
 0000:2BD3       STOPRG
 0000:2BD7       ENDST
 0000:2BF2       STPEND
 0000:2BF5       ENDCON
 0000:2C26       CTROPT
 0000:2C28       CTRLPT
 0000:2C43       CONT
 0000:2C5A       NULL
 0000:2C66       TON
 0000:2C67       TOFF
 0000:2C6D       SWAP
 0000:2CBD       ERASE
 0000:2D0C       POPAHT
 0000:2D12       ISLET
 0000:2D14       ISLET2
 0000:2D20       CLEAR
 0000:2DCC       SUBDE
 0000:2DD3       ISFLIO
 0000:2DE0       MKI$
 0000:2DE3       MKS$
 0000:2DE6       MKD$
 0000:2DFA       CVI
 0000:2DFD       CVS
 0000:2E00       CVD
 0000:2E19       FILIND
 0000:2E28       DLINE
 0000:2F2C       PRGFLI
 0000:2F2E       PRGFL2
 0000:2F33       LRUN
 0000:2F38       LOAD
 0000:2F5A       CHNENT
 0000:2FD8       PRGFIN
 0000:2FE1       OUTLOD
 0000:2FE7       MERGE
 0000:2FF7       OKGETM
 0000:3001       OKGET2
 0000:3024       SAVE
 0000:3077       FIELD
 0000:30F3       RSET
 0000:30F7       LSET
 0000:31C5       FIXINP
 0000:326B       DIM
 0000:3273       PTRGET
 0000:327A       PTRGT2
 0000:3330       NOARYS
 0000:3352       NOTFNS
 0000:336D       PTRGTN
 0000:3370       PTRGTR
 0000:3493       ERSFIN
 0000:34A1       ARYEXT
 0000:34BD       BSERR
 0000:34C3       NOTFDD
 0000:35A5       IADAHL
 0000:35E0       PRINUS
 0000:3820       STRCMP
 0000:3868       STRO$
 0000:386D       STRH$
 0000:3872       STR$
 0000:387F       STRCPY
 0000:3897       STRIN1
 0000:3899       STRINI
 0000:389F       STRAD1
 0000:38A2       PUTDEI
 0000:38A7       STRLIT
 0000:38A8       STRLTI
 0000:38AA       STRLT3
 0000:38AC       STRLT2
 0000:38E8       PUTNEW
 0000:38EC       PUTTMP
 0000:3912       STROUI
 0000:3913       DSOUT
 0000:3916       STRPRT
 0000:3934       GETSPA
 0000:395D       PPSWRT
 0000:3974       GARBA2
 0000:3A9B       CAT
 0000:3B08       FRESTR
 0000:3B0B       FREFAC
 0000:3B0F       FRETM2
 0000:3B11       FRETMP
 0000:3B35       FRETMS
 0000:3B4A       LEN
 0000:3B5A       ASC
 0000:3B5E       ASC2
 0000:3B6E       CHR$
 0000:3B74       SETSTR
 0000:3B7A       FINBCK
 0000:3B7E       STRNG$
 0000:3BAA       SPACE$
 0000:3BCB       LEFT$
 0000:3BD7       LEFTUS
 0000:3C08       RIGHT$
 0000:3C15       MID$
 0000:3C4E       VAL
 0000:3C7F       INSTR
 0000:3D39       LHSMID
 0000:3DF8       FRE
 0000:3E20       WHILE
 0000:3E4C       WEND
 0000:3EC6       CHAIN
 0000:41EA       CHNRET
 0000:4260       SKPNAM
 0000:426D       COMMON
 0000:4270       WRITE
 0000:4330       SCAN1
 0000:4344       SCAND
 0000:4396       PRESET
 0000:43A0       PSET
 0000:43BC       POINT
 0000:4412       ATRSCN
 0000:444D       XDELT
 0000:4460       NEGHL
 0000:446E       YDELT
 0000:4480       XCHGY
 0000:4490       XCHGX
 0000:44A1       GLINE
 0000:4552       DOGRPH
 0000:45B7       HLFDE
 0000:45C6       GRPRST
 0000:45DF       GRPINI
 0000:4600       PAINT
 0000:4842       CIRCLE
 0000:4B03       GPUTG
 0000:4C75       DRAW
 0000:4E20       MACLNG
 0000:4EAE       FETCHZ
 0000:4EB4       FETCHR
 0000:4ED7       DECFET
 0000:4EE8       VALSCN
 0000:4F00       VALSC2
 0000:4F7E       VARGET
 0000:4F87       MCLXEQ
 0000:4F9E       NEGD
 0000:4FB0       SEGINI
 0000:500A       GETHED
 0000:5010       PRTMAP
 0000:5050       GETFBC
 0000:506F       SETFBC
 0000:50B4       GRPSIZ
 0000:50F2       PEKFLT
 0000:5100       POKFLT
 0000:5313       SETCBF
 0000:53A9       INICOM
 0000:54C9       RECCOM
 0000:5509       SNDCOM
 0000:5561       STACOM
 0000:5590       SNDLPT
 0000:55B8       TRMCOM
 0000:56DD       SCNRST
 0000:56EF       GWINI
 0000:5774       GWTERM
 0000:57D7       KEYINP
 0000:589B       INKMAP
 0000:58FD       INFMAP
 0000:5906       EDTMAP
 0000:595F       MAPSUP
 0000:5962       SCROUT
 0000:59C6       SCRINP
 0000:59DE       SCROLL
 0000:5B20       CLRSCN
 0000:5B4D       CLREOL
 0000:5B79       CSRDSP
 0000:5C2A       CSRATR
 0000:5C5E       LCPY
 0000:5C66       SCRATR
 0000:5C89       SCRSTT
 0000:5D7A       SETCLR
 0000:5E3C       SWIDTH
 0000:5EC0       FKYFMT
 0000:5ECE       FKYADV
 0000:5ED1       STOREC
 0000:5ED9       FETCHC
 0000:5EE1       RIGHTC
 0000:5EF2       LEFTC
 0000:5F03       UPC
 0000:5F19       DOWNC
 0000:5F2F       SCALXY
 0000:5F58       MAPXYC
 0000:5F94       SETATR
 0000:5F9D       READC
 0000:5FBD       SETC
 0000:5FEF       NSETCX
 0000:603E       GTASPC
 0000:6052       PIXSIZ
 0000:6056       TUPC
 0000:6062       TDOWNC
 0000:6077       PGINIT
 0000:60AD       NREAD
 0000:60F8       NWRITE
 0000:617E       PNTINI
 0000:6189       SCANR
 0000:6243       SCANL
 0000:6322       RDPEN
 0000:635A       RDTRIG
 0000:6396       RDSTIK
 0000:63BF       POLLEV
 0000:6572       DONOTE
 0000:6690       PATCHG
 0000:6884       CLS
 0000:6895       LOCATE
 0000:6908       GWWID
 0000:6941       LCOPYS
 0000:6953       COLOR
 0000:6960       GETLIN
 0000:698A       SCRENF
 0000:69E9       SCREEN
 0000:6A22       PUT
 0000:6A28       GET
 0000:6A3E       SCNINT
 0000:6A6D       EOSCHK
 0000:6A77       LINLP3
 0000:6A93       VARPT2
 0000:6ABF       PLAYS
 0000:6C73       SNDINI
 0000:6C95       SNDRST
 0000:6CA5       BEEPS
 0000:6CA5       BEEP
 0000:6CBD       SOUNDS
 0000:6D18       CHKINT
 0000:6DB3       ONGOTP
 0000:6E22       SETGSB
 0000:6E6E       COMS
 0000:6E74       COMTRP
 0000:6E82       KEYTRP
 0000:6E8A       KEYS
 0000:6EF5       SKEYON
 0000:6F5D       TKEYOF
 0000:6F62       KEYDSP
 0000:7054       PENS
 0000:707A       PENF
 0000:70B0       STRIGS
 0000:70C8       STRIGF
 0000:7102       STICKF
 0000:713C       DATES
 0000:7142       DATEF
 0000:7234       TIMES
 0000:723A       TIMEF
 0000:72D1       PALETE
 0000:72D4       WINDOW
 0000:72D4       CHDIR
 0000:72D4       RMDIR
 0000:72D4       IOCTL
 0000:72D4       MKDIR
 0000:72D4       SHELL
 0000:72D4       VIEW
 0000:72D4       TIMER
 0000:72D4       ENVIRON
 0000:72D4       ERDEV
 0000:72D4       PMAP
 0000:72E0       OPEN
 0000:73E2       CLOSE
 0000:7401       WIDTHS
 0000:746F       BSAVE
 0000:74A6       BLOAD
 0000:7536       LPRINT
 0000:753E       PRINT
 0000:764E       EOF
 0000:766C       LOC
 0000:7674       LOF
 0000:7679       DPUTG
 0000:76C2       FILINP
 0000:76C4       FILGET
 0000:76DB       FILSET
 0000:76E8       FILSCN
 0000:76FA       GETPTR
 0000:7705       DIRDO
 0000:7712       ADRGET
 0000:771F       PRGFIL
 0000:774A       NULOPM
 0000:777A       CLSALL
 0000:7795       CLSFIL
 0000:77C5       INCHR
 0000:7814       INDSKC
 0000:7818       INCHSI
 0000:7850       CRFIN
 0000:7853       CRDONZ
 0000:785B       FININL
 0000:7861       CRDO
 0000:786E       FILOU3
 0000:786E       OUTDO
 0000:7892       BAKCHR
 0000:789C       BCHRSI
 0000:78A4       BINSAV
 0000:78AF       BINPSV
 0000:78C6       DEVBIN
 0000:78DB       DEVBOT
 0000:7901       FSTLOD
 0000:7917       PTRGPS
 0000:7935       PTRWID
 0000:794B       XTABCR
 0000:7954       EXPTAB
 0000:796B       CRIFEL
 0000:7984       UPDPOS
 0000:79BD       PTRDSP
 0000:7A36       NAMSCN
 0000:7B2E       INIFDB
 0000:7B65       SCDASC
 0000:7B70       SCDBIN
 0000:7BCF       PDCBAX
 0000:7BD0       PCBAX
 0000:7BD1       PBAX
 0000:7CA0       INITQ
 0000:7CAE       PUTQ
 0000:7CBD       GETQ
 0000:7CD9       LFTQ
 0000:7CE1       NUMQ
 0000:7CEF       GIOINI
 0000:7D09       GIOTRM
 0000:7D2A       FINLPT
 0000:7D54       FINPRT
 0000:7DE2       SAVVEC
 0000:7DF1       SETVEC
 0000:7E20       DSKDSP
 0000:8257       DFSTLD
 0000:8284       PROSAV
 0000:82A9       CMPFBC
 0000:82B8       PENCOD
 0000:82FC       PROLOD
 0000:8340       PRODIR
 0000:834A       PROCHK
 0000:8357       FILES
 0000:83E3       KILL
 0000:840C       NAME
 0000:84D7       RESET
 0000:84EF       SYSTEM
 0000:84F4       SYSTME
 0000:8510       KYBDSP
 0000:852E       KYBINI
 0000:854D       KYBCLR
 0000:8561       KYBTRM
 0000:8590       INCHRI
 0000:85AD       CHGET
 0000:85AD       KYBSIN
 0000:85E0       KEYIN
 0000:8617       POLKEY
 0000:86C2       CHKKYB
 0000:8705       CHSNS
 0000:8864       SFTOFF
 0000:8870       KYBSNS
 0000:887D       FKYSNS
 0000:8894       INKEY
 0000:88D0       STCTYP
 0000:88E5       SETCSR
 0000:8900       SCNDSP
 0000:891E       SCNINI
 0000:8925       SCNTRM
 0000:892D       SCNSWD
 0000:8953       CALTTY
 0000:8953       $CATTY
 0000:8965       SCNSOT
 0000:89E8       POS
 0000:89F6       SCNGPS
 0000:8A09       SCNGWD
 0000:8A15       SCNSCW
 0000:8A16       SCNGCW
 0000:8A20       LPTDSP
 0000:8A3E       LPTTRM
 0000:8A3F       LPTINI
 0000:8B18       LPOS
 0000:8B60       COMDSP
 0000:8B7E       COMINI
 0000:8B8C       COMTRM
 0000:8B8D       POLCOM
 0000:8F50       CONDSP
 0000:8F78       _RET
 0000:8F7C       CONSOT
 0000:8F90       _DVTBL
 0000:8FB9       _DVPTR
 0000:8FCB       _DVINI
 0000:8FDB       _DVTRM
 0000:8FF0       PINLIN
 0000:8FF6       QINLIN
 0000:9000       SINLIN
 0000:9000       INLIN
 0000:904D       SCNSEM
 0000:90B9       EDTBRK
 0000:90F1       EDIT
 0000:9164       ERREDT
 0000:91B2       OUTCH1
 0000:91D0       SCNIPL
 0000:91D6       SCNBRK
 0000:91E6       SCNSWI
 0000:9206       SCNLOC
 0000:920E       SCNCLR
 0000:921F       SCNPOS
 0000:9234       SCNGWI
 0000:9239       SCNRDT
 0000:9280       SCNOUT
 0000:95D2       SCNMRK
 0000:9651       SCNRDL
 0000:9FF0       CALLSL
 0000:9FF3       CALLS
 0000:A073       NEXT
 0000:A07B       NEXTS
 0000:A150       $FOTCI
 0000:A17E       $FOUTO
 0000:A186       $FOUTH
 0000:A5F5       $LOGP
 0000:A696       $EXPCN
 0000:A703       COS
 0000:A71B       SIN
 0000:A7B7       TAN
 0000:A7D7       ATN
 0000:A8D7       $DIV0S
 0000:A9EF       STROUT
 0000:A9F8       $DZERO
 0000:AA05       ZERO
 0000:AA0F       $SIGNS
 0000:AA0F       SIGN
 0000:AA3F       $GETYP
 0000:AB4B       $MOVFA
 0000:AB56       $MOVFR
 0000:AB5F       $MOVRF
 0000:AB91       $FCOMP
 0000:AC20       $DCMPA
 0000:AC5B       ABSFN
 0000:AC70       VNEG
 0000:AC75       $NEG
 0000:AC75       NEG
 0000:AC7B       INEG
 0000:ACD9       $MOVMF
 0000:ACF2       $MOVFM
 0000:AD06       $VPSHF
 0000:AD1D       $POPA
 0000:AD3F       VINT
 0000:AD3F       $VINT
 0000:AD4D       FIN
 0000:AD51       FINDBL
 0000:AE07       SQR
 0000:AE7A       $FPWR
 0000:AFAF       DSUB
 0000:AFBC       FADD
 0000:AFC1       FSUB
 0000:AFC6       FDIV
 0000:AFCB       CONSIH
 0000:AFDB       FMULT
 0000:AFE5       ISUB
 0000:AFFE       IADD
 0000:B01B       IMULT
 0000:B03D       IDIV
 0000:B090       MOVFR
 0000:B098       MOVFM
 0000:B0A1       MOVRF
 0000:B0AA       MOVMF
 0000:B0B5       FOUTO
 0000:B0BF       FOUTH
 0000:B0C9       FADDS
 0000:B0D1       PUSHF
 0000:B0DC       FCOMP
 0000:B0E4       FRCSTR
 0000:B0E4       CHKSTR
 0000:B0ED       INEG2
 0000:B110       RNDMON
 0000:B113       RNDMN2
 0000:B12F       UMULT
 0000:B13A       VMOVFA
 0000:B13D       VMOVFM
 0000:B143       VMOVAF
 0000:B146       VMOVMF
 0000:B14A       VDFACS
 0000:B156       MOVE1
 0000:B15E       VMOVE
 0000:B170       BLTU
 0000:B173       BLTUC
 0000:B184       DCXBRT
 0000:B188       VSIGN
 0000:B1A3       ISIGN
 0000:B1AA       POPHRT
 0000:B1AC       CONIA
 0000:B1AF       MAKINT
 0000:B1B9       VALSNG
 0000:B1BF       SGN
 0000:B1C4       FDIVT
 0000:B1C9       FPWRQ
 0000:B1D1       MOVE
 0000:B1D6       MOVRM
 0000:B1DB       GETBCD
 0000:B1E3       INXHRT
 0000:B1E7       INPRT
 0000:B1EF       LINPRT
 0000:B20A       SIGNC
 0000:B20F       DCOMP
 0000:B218       SIGNS
 0000:B233       FIXER
 0000:B249       ICOMP
 0000:B24B       ICMPA
 0000:B255       INRART
 0000:B25E       IMOD
 0000:B2F8       LOPFND
 0000:B301       LOPFD1
 0000:B3B9       EXP
 0000:B428       $FSUBD
 0000:B434       DADD
 0000:B4E4       $FSUBS
 0000:B4F0       $FADDS
 0000:B5C6       DDIV
 0000:B727       $FDIVS
 0000:B8EA       $FS
 0000:B8EA       FRCSNG
 0000:B8FB       $CSD
 0000:B919       FRCDBL
 0000:B928       $CDS
 0000:B936       $CSI
 0000:B942       $FI
 0000:B942       FRCINT
 0000:B986       VALINT
 0000:B99F       $FLT
 0000:B9C4       DMULT
 0000:BA6E       $FMULS
 0000:BC8F       FOUT
 0000:BC9C       $FOUT2
 0000:BD25       INT
 0000:BD91       LOG
 0000:BDEA       $NORMD
 0000:BE35       $NORMS
 0000:BFCE       PUFOUT
 0000:C054       RND
 0000:C1C0       JISFN
 0000:C1C0       KTNFN
 0000:C1C0       KPOSFN
 0000:C1C0       KLENFN
 0000:C1D0       MOTOR
 0000:C1E0       WORDS
 0000:C1EC       INITSA
 0000:C213       BASVAR
 0000:C223       MAPINI
 0000:C2C3       MAPCLC
 0000:C324       SEGOFF
 0000:C340       HEDING
 0000:C35E       $DATE
 0000:C36A       CERMSG
 0000:C390       INIT
 0000:C5AC       CMDERR
 0000:C5BB       $LAST
 0000:C5BB       LASTWR
 0C5E:0000       BEGDSG
 0C5E:0002       CPMMEM
 0C5E:0100       RAMLOW
 0C5E:0109       NUMCON
 0C5E:010B       DSEGZ
 0C5E:010C       RNDCOP
 0C5E:0110       $RNDX
 0C5E:0110       RNDX
 0C5E:0117       ENDPRG
 0C5E:011C       USRTAB
 0C5E:0130       NULCNT
 0C5E:0131       MSDCCF
 0C5E:0132       CTLCAD
 0C5E:0136       DINTAD
 0C5E:013A       LSTCHR
 0C5E:013B       ERRFLG
 0C5E:013C       LPTLST
 0C5E:013D       LPTPOS
 0C5E:013E       PRTFLG
 0C5E:013F       NLPPOS
 0C5E:0140       LPTSIZ
 0C5E:0141       DAYSPM
 0C5E:014E       RUBSW
 0C5E:014F       CNTOFL
 0C5E:0150       PTRFIL
 0C5E:0152       TOPMEM
 0C5E:0154       CURLIN
 0C5E:0156       TXTTAB
 0C5E:0158       OVERRI
 0C5E:015A       CSRTYP
 0C5E:015B       CSRFLG
 0C5E:015C       DEVTBL
 0C5E:015E       DEVPTR
 0C5E:0160       DEVINI
 0C5E:0162       DEVTRM
 0C5E:0164       SAVKEY
 0C5E:0165       SAVKYF
 0C5E:0166       FREFDB
 0C5E:0168       IOJUMP
 0C5E:016A       FILTAB
 0C5E:016C       STKLOW
 0C5E:016E       FILMOD
 0C5E:016F       NLONLY
 0C5E:0170       RUNFLG
 0C5E:0172       DATIME
 0C5E:0177       CPMEXT
 0C5E:017B       NAMCNT
 0C5E:017C       NAMBUF
 0C5E:01A2       NAMTMP
 0C5E:01A4       FILNA2
 0C5E:01C5       FILDEV
 0C5E:01C5       FILNAM
 0C5E:01C6       FILNM
 0C5E:01CE       FILEXT
 0C5E:01E6       CPMVRN
 0C5E:01E7       CPMREA
 0C5E:01E8       CPMWRI
 0C5E:01EA       KBUF
 0C5E:0328       BUFMIN
 0C5E:0329       BUF
 0C5E:042B       ENDBUF
 0C5E:042C       TTYPOS
 0C5E:042D       DIMFLG
 0C5E:042E       VALTYP
 0C5E:042E       $VALTP
 0C5E:042F       OPRTYP
 0C5E:042F       DORES
 0C5E:0430       DONUM
 0C5E:0431       CONTXT
 0C5E:0433       CONSAV
 0C5E:0434       CONTYP
 0C5E:0435       CONLO
 0C5E:043D       MAXMEM
 0C5E:043F       MEMSIZ
 0C5E:0441       TEMPPT
 0C5E:0443       TEMPST
 0C5E:0461       DSCTMP
 0C5E:0462       DSCPTR
 0C5E:0464       FRETOP
 0C5E:0466       TEMP3
 0C5E:0468       TEMP8
 0C5E:046A       ENDFOR
 0C5E:046C       DATLIN
 0C5E:046E       SUBFLG
 0C5E:046F       SARYFL
 0C5E:0470       USFLG
 0C5E:0470       FLGINP
 0C5E:0471       TEMP
 0C5E:0473       PTRFLG
 0C5E:0474       AUTFLG
 0C5E:0475       AUTLIN
 0C5E:0477       AUTINC
 0C5E:0479       SAVTXT
 0C5E:047B       SAVSTK
 0C5E:047D       ERRLIN
 0C5E:047F       DOT
 0C5E:0481       ERRTXT
 0C5E:0483       ONELIN
 0C5E:0485       ONEFLG
 0C5E:0486       SAVSEG
 0C5E:0488       TEMP2
 0C5E:0488       $DPADR
 0C5E:048A       OLDLIN
 0C5E:048C       OLDTXT
 0C5E:048E       VARTAB
 0C5E:0490       ARYTAB
 0C5E:0492       STREND
 0C5E:0494       DATPTR
 0C5E:0496       DEFTBL
 0C5E:04B0       PRMSTK
 0C5E:04B2       PRMLEN
 0C5E:04B4       PARM1
 0C5E:0518       PRMPRV
 0C5E:051A       PRMLN2
 0C5E:051C       PARM2
 0C5E:0580       PRMFLG
 0C5E:0581       ARYTA2
 0C5E:0583       NOFUNS
 0C5E:0584       TEMP9
 0C5E:0586       FUNACT
 0C5E:0588       INPPAS
 0C5E:0589       NXTTXT
 0C5E:058B       NXTFLG
 0C5E:058C       FVALSV
 0C5E:0590       NXTLIN
 0C5E:0592       OPTVAL
 0C5E:0593       OPTFLG
 0C5E:0594       TOPTVL
 0C5E:0595       TOPTFG
 0C5E:0596       TEMPA
 0C5E:0598       SAVFRE
 0C5E:059A       PROFLG
 0C5E:059B       MRGFLG
 0C5E:059C       MDLFLG
 0C5E:059D       CMEPTR
 0C5E:059F       CMSPTR
 0C5E:05A1       CHNFLG
 0C5E:05A2       CHNLIN
 0C5E:05A4       SWPTMP
 0C5E:05AC       TRCFLG
 0C5E:05AD       EXPAF
 0C5E:05AE       EXPTMP
 0C5E:05B6       RECRD
 0C5E:05B6       TEMPB
 0C5E:05B8       LBUFF
 0C5E:05BA       PBUFF
 0C5E:05BC       PGTFLG
 0C5E:05BE       $DBUFF
 0C5E:05C7       $FMTCX
 0C5E:05C9       $FMTAX
 0C5E:05C9       $FMTAL
 0C5E:05CC       $ZLO
 0C5E:05D3       $ZX
 0C5E:05D4       $Z1LO
 0C5E:05DB       $Z1
 0C5E:05E5       DFACLO
 0C5E:05E5       $DFACL
 0C5E:05E9       $FACLO
 0C5E:05E9       FACLO
 0C5E:05EB       $FACM1
 0C5E:05EC       FAC
 0C5E:05EC       $FAC
 0C5E:05EE       $FLGOV
 0C5E:05EE       FLGOVC
 0C5E:05EF       OVCSTR
 0C5E:05F0       FLGSCN
 0C5E:05F2       ARGLO
 0C5E:05F2       $ARGLO
 0C5E:05F9       ARG
 0C5E:05F9       $ARG
 0C5E:05FA       FBUFFR
 0C5E:05FA       $FBUFF
 0C5E:0622       FMLTT1
 0C5E:0623       FMLTT2
 0C5E:0625       TSTACK
 0C5E:0670       FREFLG
 0C5E:0670       MOVDAT
 0C5E:0671       INITFG
 0C5E:0672       ESCFLG
 0C5E:0673       TWOBYT
 0C5E:0674       STRTAB
 0C5E:0714       ENDTAB
 0C5E:0714       CMDOFF
 0C5E:0716       FKCNUM
 0C5E:0717       ACTPAG
 0C5E:0718       F_EDPG
 0C5E:0719       SEMFLG
 0C5E:071A       F_CRET
 0C5E:071B       F_INST
 0C5E:071C       F_EDIT
 0C5E:071D       DRWSCL
 0C5E:071E       DRWFLG
 0C5E:071F       DRWANG
 0C5E:0720       MCLPTR
 0C5E:0722       MCLLEN
 0C5E:0723       MCLTAB
 0C5E:0725       OCTAVE
 0C5E:0726       BEATS
 0C5E:0727       NOTELN
 0C5E:0728       NOTE1L
 0C5E:0729       MSCALE
 0C5E:072A       MMODE
 0C5E:072B       SNDTIC
 0C5E:072C       SNDBAS
 0C5E:072E       SNDOUT
 0C5E:0730       FPDVAR
 0C5E:0730       PDIDS1
 0C5E:0731       KEYSW
 0C5E:0732       LINLEN
 0C5E:0733       LINCNT
 0C5E:0734       CRTWID
 0C5E:0735       WDOTOP
 0C5E:0736       WDOBOT
 0C5E:0737       WDOLFT
 0C5E:0738       WDORGT
 0C5E:0739       WDTFLG
 0C5E:073A       LINTTB
 0C5E:076E       TRMCUR
 0C5E:0770       FSTLIN
 0C5E:0771       FSTCOL
 0C5E:0772       LSTLIN
 0C5E:0773       LSTCOL
 0C5E:0774       CSRY
 0C5E:0775       CSRX
 0C5E:0776       LPDVAR
 0C5E:0776       GRPACX
 0C5E:0778       GRPACY
 0C5E:077A       ATRBYT
 0C5E:077B       GXPOS
 0C5E:077D       GYPOS
 0C5E:077E       MAXUPD
 0C5E:0780       MINUPD
 0C5E:0783       MAXDEL
 0C5E:0785       MINDEL
 0C5E:0787       ASPECT
 0C5E:0789       CENCNT
 0C5E:078B       CLINEF
 0C5E:078C       CNPNTS
 0C5E:078E       CPLOTF
 0C5E:078F       CPCNT
 0C5E:0791       CPCNT8
 0C5E:0793       CRCSUM
 0C5E:0795       CSTCNT
 0C5E:0797       CSCLXY
 0C5E:0798       CSAVEA
 0C5E:079A       CSAVEM
 0C5E:079B       CXOFF
 0C5E:079D       CYOFF
 0C5E:079F       LOHMSK
 0C5E:07A0       LOHDIR
 0C5E:07A1       LOHADR
 0C5E:07A3       LOHCNT
 0C5E:07A5       LFPROG
 0C5E:07A6       RTPROG
 0C5E:07A7       SKPCNT
 0C5E:07A9       MOVCNT
 0C5E:07AB       PDIREC
 0C5E:07AC       PUTFLG
 0C5E:07AD       QUEINP
 0C5E:07AF       QUEOUT
 0C5E:07B1       PSNLEN
 0C5E:07B3       QUELEN
 0C5E:07B5       SAVLEN
 0C5E:07B7       FILOPT
 0C5E:07F7       LP1DCB
 0C5E:0803       KYBQDS
 0C5E:080B       KYBQUE
 0C5E:082B       MSWSIZ
 0C5E:082D       MSWFLG
 0C5E:082E       CSWSIZ
 0C5E:0830       CSWFLG
 0C5E:0831       NEWDS
 0C5E:0833       COMDSC
 0C5E:0845       CM1DCB
 0C5E:0875       LSTIOB
 0C5E:0876       TRPTBL
 0C5E:08B5       ONGSBF
 0C5E:08B6       SOFTKY
 0C5E:08B7       F_SUPR
 0C5E:08C0       LSTVAR
 0000:FE90  Abs  $COM2B
 0000:FFA0  Abs  $PEN2B
 0000:FFA2  Abs  $STR2B

Program entry point at 0000:C5C0
