

Warning: no stack segment

 Start  Stop   Length Name                   Class
 00000H 00A19H 00A1AH CODE                   CODE
 00A20H 00A2FH 00010H DATA                   DATA

 Origin   Group
 0000:0   DEV

  Address         Publics by Name

 0000:0573       ADD_PACKET
 0000:009A       BIOS_LOCK
 0000:0594       CHECK_HOTKEY
 0000:0012       CMDTBL
 0000:000F  Abs  CMDTBL_SIZE
 0000:0000       CON
 0000:0042       CON_PARMS
 0000:0094       CT_FOCUS
 0000:0092       CT_HEAD
 0000:0066       DBL_BORDER
 0000:03D7       DDCON_CLOSE
 0000:019F       DDCON_GETCLR
 0000:00FA       DDCON_GETDIM
 0000:0108       DDCON_GETLEN
 0000:00FF       DDCON_GETPOS
 0000:09BC       DDCON_INIT
 0000:043A       DDCON_INT09
 0000:0513       DDCON_INT10
 0000:055B       DDCON_INT29
 0000:00C0       DDCON_IOCTL
 0000:015F       DDCON_MOVCUR
 0000:0432       DDCON_NONE
 0000:0235       DDCON_OPEN
 0000:01B2       DDCON_READ
 0000:00A8       DDCON_REQ
 0000:0186       DDCON_SCROLL
 0000:01A4       DDCON_SETCLR
 0000:0163       DDCON_SETINS
 0000:01F4       DDCON_WRITE
 0000:0617       DRAW_BORDER
 0000:065D       DRAW_CHAR
 0000:06A7       DRAW_CURSOR
 0000:06BA       DRAW_HORZPAIR
 0000:0695       DRAW_LINEFEED
 0000:06CD       DRAW_VERTPAIR
 0000:0096       FRAME_SEG
 0000:06E0       GET_CURPOS
 0000:06F4       HIDE_CURSOR
 0000:0030       IOCTBL
 0000:0009  Abs  IOCTBL_SIZE
 0000:009C       KBD_INT
 0000:0099       MAX_COLS
 0000:0098       MAX_ROWS
 0000:06FA       MOVE_CURSOR
 0000:075D       PULL_KBD
 0000:009B       REQ_SWITCH
 0000:0076       SCAN_MAP
 0000:07B4       SCROLL
 0000:06B2       SET_CURSOR
 0000:07E4       SET_CURTYPE
 0000:006E       SGL_BORDER
 0000:07F4       SHOW_CURSOR
 0000:07F9       SWITCH_FOCUS
 0000:0808       SWITCH_NOW
 0000:0857       UNLOCK_BIOS
 0000:0878       UPDATE_BIOSDATA
 0000:08B3       UPDATE_CONTEXT
 0000:074B       UPDATE_CURSOR
 0000:08D1       UPDATE_CURTYPE
 0000:00A0       VIDEO_INT
 0000:00A4       WAIT_PTR
 0000:08F2       WRITE_CHAR
 0000:08FD       WRITE_CONTEXT
 0000:0997       WRITE_CRTC16
 0000:09A6       WRITE_CRTC8
 0000:0964       WRITE_CURPOS
 0000:004E       ZERO

  Address         Publics by Value

 0000:0000       CON
 0000:0009  Abs  IOCTBL_SIZE
 0000:000F  Abs  CMDTBL_SIZE
 0000:0012       CMDTBL
 0000:0030       IOCTBL
 0000:0042       CON_PARMS
 0000:004E       ZERO
 0000:0066       DBL_BORDER
 0000:006E       SGL_BORDER
 0000:0076       SCAN_MAP
 0000:0092       CT_HEAD
 0000:0094       CT_FOCUS
 0000:0096       FRAME_SEG
 0000:0098       MAX_ROWS
 0000:0099       MAX_COLS
 0000:009A       BIOS_LOCK
 0000:009B       REQ_SWITCH
 0000:009C       KBD_INT
 0000:00A0       VIDEO_INT
 0000:00A4       WAIT_PTR
 0000:00A8       DDCON_REQ
 0000:00C0       DDCON_IOCTL
 0000:00FA       DDCON_GETDIM
 0000:00FF       DDCON_GETPOS
 0000:0108       DDCON_GETLEN
 0000:015F       DDCON_MOVCUR
 0000:0163       DDCON_SETINS
 0000:0186       DDCON_SCROLL
 0000:019F       DDCON_GETCLR
 0000:01A4       DDCON_SETCLR
 0000:01B2       DDCON_READ
 0000:01F4       DDCON_WRITE
 0000:0235       DDCON_OPEN
 0000:03D7       DDCON_CLOSE
 0000:0432       DDCON_NONE
 0000:043A       DDCON_INT09
 0000:0513       DDCON_INT10
 0000:055B       DDCON_INT29
 0000:0573       ADD_PACKET
 0000:0594       CHECK_HOTKEY
 0000:0617       DRAW_BORDER
 0000:065D       DRAW_CHAR
 0000:0695       DRAW_LINEFEED
 0000:06A7       DRAW_CURSOR
 0000:06B2       SET_CURSOR
 0000:06BA       DRAW_HORZPAIR
 0000:06CD       DRAW_VERTPAIR
 0000:06E0       GET_CURPOS
 0000:06F4       HIDE_CURSOR
 0000:06FA       MOVE_CURSOR
 0000:074B       UPDATE_CURSOR
 0000:075D       PULL_KBD
 0000:07B4       SCROLL
 0000:07E4       SET_CURTYPE
 0000:07F4       SHOW_CURSOR
 0000:07F9       SWITCH_FOCUS
 0000:0808       SWITCH_NOW
 0000:0857       UNLOCK_BIOS
 0000:0878       UPDATE_BIOSDATA
 0000:08B3       UPDATE_CONTEXT
 0000:08D1       UPDATE_CURTYPE
 0000:08F2       WRITE_CHAR
 0000:08FD       WRITE_CONTEXT
 0000:0964       WRITE_CURPOS
 0000:0997       WRITE_CRTC16
 0000:09A6       WRITE_CRTC8
 0000:09BC       DDCON_INIT
